---
triple:          'arm64-apple-darwin'
binary-path:     test
relocations:
  - { offsetInCU: 0x2D7D, offset: 0x2D7D, size: 0x8, addend: 0x0, symName: __ZNSt3__130__libcpp_is_constant_evaluatedB7v160006Ev, symObjAddr: 0x714, symBinAddr: 0x10000395C, symSize: 0xC }
  - { offsetInCU: 0x2D9A, offset: 0x2D9A, size: 0x8, addend: 0x0, symName: __ZNSt3__119__debug_db_insert_cB7v160006INS_12basic_stringIcNS_11char_traitsIcEENS_9allocatorIcEEEEEEvPT_, symObjAddr: 0x83C, symBinAddr: 0x100003A84, symSize: 0x10 }
  - { offsetInCU: 0x2DCB, offset: 0x2DCB, size: 0x8, addend: 0x0, symName: __ZNSt3__118__constexpr_strlenB7v160006EPKc, symObjAddr: 0x908, symBinAddr: 0x100003B50, symSize: 0x24 }
  - { offsetInCU: 0x2DF7, offset: 0x2DF7, size: 0x8, addend: 0x0, symName: __ZNSt3__117__libcpp_allocateB7v160006Emm, symObjAddr: 0xD30, symBinAddr: 0x100003F78, symSize: 0x28 }
  - { offsetInCU: 0x2E34, offset: 0x2E34, size: 0x8, addend: 0x0, symName: __ZNSt3__121__libcpp_operator_newB7v160006IJmEEEPvDpT_, symObjAddr: 0xD6C, symBinAddr: 0x100003FB4, symSize: 0x24 }
  - { offsetInCU: 0x2E6E, offset: 0x2E6E, size: 0x8, addend: 0x0, symName: __ZSt28__throw_bad_array_new_lengthB7v160006v, symObjAddr: 0xCFC, symBinAddr: 0x100003F44, symSize: 0x34 }
  - { offsetInCU: 0x5435, offset: 0x5435, size: 0x8, addend: 0x0, symName: __ZN20ECConsoleUITextLabelC2EiiRKNSt3__112basic_stringIcNS0_11char_traitsIcEENS0_9allocatorIcEEEE, symObjAddr: 0x0, symBinAddr: 0x100003248, symSize: 0x16C }
  - { offsetInCU: 0x5489, offset: 0x5489, size: 0x8, addend: 0x0, symName: __ZNKSt3__112basic_stringIcNS_11char_traitsIcEENS_9allocatorIcEEE4sizeB7v160006Ev, symObjAddr: 0x16C, symBinAddr: 0x1000033B4, symSize: 0x54 }
  - { offsetInCU: 0x54AD, offset: 0x54AD, size: 0x8, addend: 0x0, symName: __ZN15ECConsoleUIItemC2Eiiii, symObjAddr: 0x1C0, symBinAddr: 0x100003408, symSize: 0x54 }
  - { offsetInCU: 0x5512, offset: 0x5512, size: 0x8, addend: 0x0, symName: __ZNSt3__112basic_stringIcNS_11char_traitsIcEENS_9allocatorIcEEEC1B7v160006IDnEEPKc, symObjAddr: 0x214, symBinAddr: 0x10000345C, symSize: 0x34 }
  - { offsetInCU: 0x554E, offset: 0x554E, size: 0x8, addend: 0x0, symName: __ZN15ECConsoleUIItemD2Ev, symObjAddr: 0x254, symBinAddr: 0x10000349C, symSize: 0x14 }
  - { offsetInCU: 0x5576, offset: 0x5576, size: 0x8, addend: 0x0, symName: __ZN20ECConsoleUITextLabelC1EiiRKNSt3__112basic_stringIcNS0_11char_traitsIcEENS0_9allocatorIcEEEE, symObjAddr: 0x268, symBinAddr: 0x1000034B0, symSize: 0x44 }
  - { offsetInCU: 0x55CA, offset: 0x55CA, size: 0x8, addend: 0x0, symName: __ZNK20ECConsoleUITextLabel12GetTextAtRowEi, symObjAddr: 0x2AC, symBinAddr: 0x1000034F4, symSize: 0xEC }
  - { offsetInCU: 0x560D, offset: 0x560D, size: 0x8, addend: 0x0, symName: __ZNSt3__112basic_stringIcNS_11char_traitsIcEENS_9allocatorIcEEEC1B7v160006Ev, symObjAddr: 0x398, symBinAddr: 0x1000035E0, symSize: 0x2C }
  - { offsetInCU: 0x5635, offset: 0x5635, size: 0x8, addend: 0x0, symName: __ZNK15ECConsoleUIItem6GetYULEv, symObjAddr: 0x3C4, symBinAddr: 0x10000360C, symSize: 0x18 }
  - { offsetInCU: 0x5659, offset: 0x5659, size: 0x8, addend: 0x0, symName: __ZNK20ECConsoleUITextLabel20GetHighlightPositionERiS0_, symObjAddr: 0x3DC, symBinAddr: 0x100003624, symSize: 0x74 }
  - { offsetInCU: 0x569B, offset: 0x569B, size: 0x8, addend: 0x0, symName: __ZNK15ECConsoleUIItem8GetWidthEv, symObjAddr: 0x450, symBinAddr: 0x100003698, symSize: 0x48 }
  - { offsetInCU: 0x56BF, offset: 0x56BF, size: 0x8, addend: 0x0, symName: __ZN20ECConsoleUITextLabel11HdlKeyEnterEv, symObjAddr: 0x498, symBinAddr: 0x1000036E0, symSize: 0x10 }
  - { offsetInCU: 0x56E5, offset: 0x56E5, size: 0x8, addend: 0x0, symName: __ZN20ECConsoleUITextLabelD1Ev, symObjAddr: 0x4A8, symBinAddr: 0x1000036F0, symSize: 0x2C }
  - { offsetInCU: 0x570F, offset: 0x570F, size: 0x8, addend: 0x0, symName: __ZN20ECConsoleUITextLabelD0Ev, symObjAddr: 0x4D4, symBinAddr: 0x10000371C, symSize: 0x58 }
  - { offsetInCU: 0x5739, offset: 0x5739, size: 0x8, addend: 0x0, symName: __ZNK15ECConsoleUIItem14IsHandlingKeysEv, symObjAddr: 0x52C, symBinAddr: 0x100003774, symSize: 0x18 }
  - { offsetInCU: 0x575D, offset: 0x575D, size: 0x8, addend: 0x0, symName: __ZN15ECConsoleUIItem8HdlKeyUpEv, symObjAddr: 0x544, symBinAddr: 0x10000378C, symSize: 0x10 }
  - { offsetInCU: 0x5781, offset: 0x5781, size: 0x8, addend: 0x0, symName: __ZN15ECConsoleUIItem10HdlKeyDownEv, symObjAddr: 0x554, symBinAddr: 0x10000379C, symSize: 0x10 }
  - { offsetInCU: 0x57A5, offset: 0x57A5, size: 0x8, addend: 0x0, symName: __ZN15ECConsoleUIItem11HdlOtherKeyEv, symObjAddr: 0x564, symBinAddr: 0x1000037AC, symSize: 0x10 }
  - { offsetInCU: 0x57C9, offset: 0x57C9, size: 0x8, addend: 0x0, symName: __ZN15ECConsoleUIItemD1Ev, symObjAddr: 0x574, symBinAddr: 0x1000037BC, symSize: 0x14 }
  - { offsetInCU: 0x57F1, offset: 0x57F1, size: 0x8, addend: 0x0, symName: __ZN15ECConsoleUIItemD0Ev, symObjAddr: 0x588, symBinAddr: 0x1000037D0, symSize: 0xC }
  - { offsetInCU: 0x5819, offset: 0x5819, size: 0x8, addend: 0x0, symName: __ZN15ECConsoleUIItem11HdlKeyEnterEv, symObjAddr: 0x594, symBinAddr: 0x1000037DC, symSize: 0x10 }
  - { offsetInCU: 0x583D, offset: 0x583D, size: 0x8, addend: 0x0, symName: __ZNK15ECConsoleUIItem6GetXLREv, symObjAddr: 0x5A4, symBinAddr: 0x1000037EC, symSize: 0x18 }
  - { offsetInCU: 0x5861, offset: 0x5861, size: 0x8, addend: 0x0, symName: __ZNK15ECConsoleUIItem6GetXULEv, symObjAddr: 0x5BC, symBinAddr: 0x100003804, symSize: 0x18 }
  - { offsetInCU: 0x5885, offset: 0x5885, size: 0x8, addend: 0x0, symName: __ZN20ECConsoleUITextLabelD2Ev, symObjAddr: 0x5D4, symBinAddr: 0x10000381C, symSize: 0x70 }
  - { offsetInCU: 0x58AF, offset: 0x58AF, size: 0x8, addend: 0x0, symName: __ZNKSt3__112basic_stringIcNS_11char_traitsIcEENS_9allocatorIcEEE9__is_longB7v160006Ev, symObjAddr: 0x644, symBinAddr: 0x10000388C, symSize: 0x74 }
  - { offsetInCU: 0x58D3, offset: 0x58D3, size: 0x8, addend: 0x0, symName: __ZNKSt3__112basic_stringIcNS_11char_traitsIcEENS_9allocatorIcEEE15__get_long_sizeB7v160006Ev, symObjAddr: 0x6B8, symBinAddr: 0x100003900, symSize: 0x28 }
  - { offsetInCU: 0x58F7, offset: 0x58F7, size: 0x8, addend: 0x0, symName: __ZNKSt3__112basic_stringIcNS_11char_traitsIcEENS_9allocatorIcEEE16__get_short_sizeB7v160006Ev, symObjAddr: 0x6E0, symBinAddr: 0x100003928, symSize: 0x34 }
  - { offsetInCU: 0x591B, offset: 0x591B, size: 0x8, addend: 0x0, symName: __ZNKSt3__117__compressed_pairINS_12basic_stringIcNS_11char_traitsIcEENS_9allocatorIcEEE5__repES5_E5firstB7v160006Ev, symObjAddr: 0x720, symBinAddr: 0x100003968, symSize: 0x24 }
  - { offsetInCU: 0x593F, offset: 0x593F, size: 0x8, addend: 0x0, symName: __ZNKSt3__122__compressed_pair_elemINS_12basic_stringIcNS_11char_traitsIcEENS_9allocatorIcEEE5__repELi0ELb0EE5__getB7v160006Ev, symObjAddr: 0x744, symBinAddr: 0x10000398C, symSize: 0x14 }
  - { offsetInCU: 0x5963, offset: 0x5963, size: 0x8, addend: 0x0, symName: __ZNSt3__112basic_stringIcNS_11char_traitsIcEENS_9allocatorIcEEEC2B7v160006IDnEEPKc, symObjAddr: 0x758, symBinAddr: 0x1000039A0, symSize: 0x60 }
  - { offsetInCU: 0x59A4, offset: 0x59A4, size: 0x8, addend: 0x0, symName: __ZNSt3__117__compressed_pairINS_12basic_stringIcNS_11char_traitsIcEENS_9allocatorIcEEE5__repES5_EC1B7v160006INS_18__default_init_tagESA_EEOT_OT0_, symObjAddr: 0x7B8, symBinAddr: 0x100003A00, symSize: 0x3C }
  - { offsetInCU: 0x59FA, offset: 0x59FA, size: 0x8, addend: 0x0, symName: __ZNSt3__111char_traitsIcE6lengthEPKc, symObjAddr: 0x7F4, symBinAddr: 0x100003A3C, symSize: 0x48 }
  - { offsetInCU: 0x5A1C, offset: 0x5A1C, size: 0x8, addend: 0x0, symName: __ZNSt3__117__compressed_pairINS_12basic_stringIcNS_11char_traitsIcEENS_9allocatorIcEEE5__repES5_EC2B7v160006INS_18__default_init_tagESA_EEOT_OT0_, symObjAddr: 0x84C, symBinAddr: 0x100003A94, symSize: 0x3C }
  - { offsetInCU: 0x5A72, offset: 0x5A72, size: 0x8, addend: 0x0, symName: __ZNSt3__122__compressed_pair_elemINS_12basic_stringIcNS_11char_traitsIcEENS_9allocatorIcEEE5__repELi0ELb0EEC2B7v160006ENS_18__default_init_tagE, symObjAddr: 0x888, symBinAddr: 0x100003AD0, symSize: 0x14 }
  - { offsetInCU: 0x5AA4, offset: 0x5AA4, size: 0x8, addend: 0x0, symName: __ZNSt3__122__compressed_pair_elemINS_9allocatorIcEELi1ELb1EEC2B7v160006ENS_18__default_init_tagE, symObjAddr: 0x89C, symBinAddr: 0x100003AE4, symSize: 0x2C }
  - { offsetInCU: 0x5AD6, offset: 0x5AD6, size: 0x8, addend: 0x0, symName: __ZNSt3__19allocatorIcEC2B7v160006Ev, symObjAddr: 0x8C8, symBinAddr: 0x100003B10, symSize: 0x2C }
  - { offsetInCU: 0x5AFE, offset: 0x5AFE, size: 0x8, addend: 0x0, symName: __ZNSt3__116__non_trivial_ifILb1ENS_9allocatorIcEEEC2B7v160006Ev, symObjAddr: 0x8F4, symBinAddr: 0x100003B3C, symSize: 0x14 }
  - { offsetInCU: 0x5B26, offset: 0x5B26, size: 0x8, addend: 0x0, symName: __ZNSt3__112basic_stringIcNS_11char_traitsIcEENS_9allocatorIcEEEC2B7v160006Ev, symObjAddr: 0x92C, symBinAddr: 0x100003B74, symSize: 0x44 }
  - { offsetInCU: 0x5B4E, offset: 0x5B4E, size: 0x8, addend: 0x0, symName: __ZNSt3__112basic_stringIcNS_11char_traitsIcEENS_9allocatorIcEEE14__default_initB7v160006Ev, symObjAddr: 0x970, symBinAddr: 0x100003BB8, symSize: 0xB0 }
  - { offsetInCU: 0x5B9E, offset: 0x5B9E, size: 0x8, addend: 0x0, symName: __ZNSt3__117__compressed_pairINS_12basic_stringIcNS_11char_traitsIcEENS_9allocatorIcEEE5__repES5_E5firstB7v160006Ev, symObjAddr: 0xA20, symBinAddr: 0x100003C68, symSize: 0x24 }
  - { offsetInCU: 0x5BC2, offset: 0x5BC2, size: 0x8, addend: 0x0, symName: __ZNSt3__112basic_stringIcNS_11char_traitsIcEENS_9allocatorIcEEE11__recommendB7v160006Em, symObjAddr: 0xA44, symBinAddr: 0x100003C8C, symSize: 0x9C }
  - { offsetInCU: 0x5BF4, offset: 0x5BF4, size: 0x8, addend: 0x0, symName: __ZNSt3__116allocator_traitsINS_9allocatorIcEEE8allocateB7v160006ERS2_m, symObjAddr: 0xAE0, symBinAddr: 0x100003D28, symSize: 0x2C }
  - { offsetInCU: 0x5C26, offset: 0x5C26, size: 0x8, addend: 0x0, symName: __ZNSt3__112basic_stringIcNS_11char_traitsIcEENS_9allocatorIcEEE7__allocB7v160006Ev, symObjAddr: 0xB0C, symBinAddr: 0x100003D54, symSize: 0x24 }
  - { offsetInCU: 0x5C4A, offset: 0x5C4A, size: 0x8, addend: 0x0, symName: __ZNSt3__112basic_stringIcNS_11char_traitsIcEENS_9allocatorIcEEE16__begin_lifetimeB7v160006EPcm, symObjAddr: 0xB30, symBinAddr: 0x100003D78, symSize: 0x14 }
  - { offsetInCU: 0x5C7C, offset: 0x5C7C, size: 0x8, addend: 0x0, symName: __ZNSt3__112basic_stringIcNS_11char_traitsIcEENS_9allocatorIcEEE18__set_long_pointerB7v160006EPc, symObjAddr: 0xB44, symBinAddr: 0x100003D8C, symSize: 0x38 }
  - { offsetInCU: 0x5CAF, offset: 0x5CAF, size: 0x8, addend: 0x0, symName: __ZNSt3__112basic_stringIcNS_11char_traitsIcEENS_9allocatorIcEEE14__set_long_capB7v160006Em, symObjAddr: 0xB7C, symBinAddr: 0x100003DC4, symSize: 0x70 }
  - { offsetInCU: 0x5CE2, offset: 0x5CE2, size: 0x8, addend: 0x0, symName: __ZNSt3__112basic_stringIcNS_11char_traitsIcEENS_9allocatorIcEEE15__set_long_sizeB7v160006Em, symObjAddr: 0xBEC, symBinAddr: 0x100003E34, symSize: 0x38 }
  - { offsetInCU: 0x5D15, offset: 0x5D15, size: 0x8, addend: 0x0, symName: __ZNSt3__122__compressed_pair_elemINS_12basic_stringIcNS_11char_traitsIcEENS_9allocatorIcEEE5__repELi0ELb0EE5__getB7v160006Ev, symObjAddr: 0xC24, symBinAddr: 0x100003E6C, symSize: 0x14 }
  - { offsetInCU: 0x5D39, offset: 0x5D39, size: 0x8, addend: 0x0, symName: __ZNSt3__112basic_stringIcNS_11char_traitsIcEENS_9allocatorIcEEE10__align_itB7v160006ILm16EEEmm, symObjAddr: 0xC38, symBinAddr: 0x100003E80, symSize: 0x1C }
  - { offsetInCU: 0x5D66, offset: 0x5D66, size: 0x8, addend: 0x0, symName: __ZNSt3__19allocatorIcE8allocateB7v160006Em, symObjAddr: 0xC54, symBinAddr: 0x100003E9C, symSize: 0x84 }
  - { offsetInCU: 0x5DA2, offset: 0x5DA2, size: 0x8, addend: 0x0, symName: __ZNSt3__116allocator_traitsINS_9allocatorIcEEE8max_sizeB7v160006IS2_vEEmRKS2_, symObjAddr: 0xCD8, symBinAddr: 0x100003F20, symSize: 0x24 }
  - { offsetInCU: 0x5DCF, offset: 0x5DCF, size: 0x8, addend: 0x0, symName: __ZNKSt3__19allocatorIcE8max_sizeB7v160006Ev, symObjAddr: 0xD58, symBinAddr: 0x100003FA0, symSize: 0x14 }
  - { offsetInCU: 0x5DF3, offset: 0x5DF3, size: 0x8, addend: 0x0, symName: __ZNSt3__117__compressed_pairINS_12basic_stringIcNS_11char_traitsIcEENS_9allocatorIcEEE5__repES5_E6secondB7v160006Ev, symObjAddr: 0xD90, symBinAddr: 0x100003FD8, symSize: 0x24 }
  - { offsetInCU: 0x5E17, offset: 0x5E17, size: 0x8, addend: 0x0, symName: __ZNSt3__122__compressed_pair_elemINS_9allocatorIcEELi1ELb1EE5__getB7v160006Ev, symObjAddr: 0xDB4, symBinAddr: 0x100003FFC, symSize: 0x14 }
  - { offsetInCU: 0x52, offset: 0x5EC4, size: 0x8, addend: 0x0, symName: __ZL8fRawMode, symObjAddr: 0x758E0, symBinAddr: 0x10001C048, symSize: 0x0 }
  - { offsetInCU: 0x72, offset: 0x5EE4, size: 0x8, addend: 0x0, symName: __ZL12orig_termios, symObjAddr: 0x75898, symBinAddr: 0x10001C000, symSize: 0x0 }
  - { offsetInCU: 0x6B40, offset: 0xC9B2, size: 0x8, addend: 0x0, symName: __ZNSt3__124__put_character_sequenceB7v160006IcNS_11char_traitsIcEEEERNS_13basic_ostreamIT_T0_EES7_PKS4_m, symObjAddr: 0x4014, symBinAddr: 0x100007CD8, symSize: 0x1F4 }
  - { offsetInCU: 0x7FBD, offset: 0xDE2F, size: 0x8, addend: 0x0, symName: __ZNSt3__114__copy_alignedB7v160006INS_6vectorIbNS_9allocatorIbEEEELb0EEENS_14__bit_iteratorIT_Lb0EXLi0EEEENS5_IS6_XT0_EXLi0EEEES8_S7_, symObjAddr: 0x6D18, symBinAddr: 0x10000A95C, symSize: 0x278 }
  - { offsetInCU: 0x80EB, offset: 0xDF5D, size: 0x8, addend: 0x0, symName: __ZNSt3__16copy_nB7v160006IPmmS1_EENS_9enable_ifIXsr33__is_cpp17_random_access_iteratorIT_EE5valueET1_E4typeES3_T0_S4_, symObjAddr: 0x74FC, symBinAddr: 0x10000B140, symSize: 0x44 }
  - { offsetInCU: 0x8192, offset: 0xE004, size: 0x8, addend: 0x0, symName: __ZNSt3__116__copy_unalignedB7v160006INS_6vectorIbNS_9allocatorIbEEEELb0EEENS_14__bit_iteratorIT_Lb0EXLi0EEEENS5_IS6_XT0_EXLi0EEEES8_S7_, symObjAddr: 0x6F90, symBinAddr: 0x10000ABD4, symSize: 0x540 }
  - { offsetInCU: 0xDCE3, offset: 0x13B55, size: 0x8, addend: 0x0, symName: __ZNSt3__1lsB7v160006INS_11char_traitsIcEEEERNS_13basic_ostreamIcT_EES6_PKc, symObjAddr: 0x52C, symBinAddr: 0x100004530, symSize: 0x48 }
  - { offsetInCU: 0xDD29, offset: 0x13B9B, size: 0x8, addend: 0x0, symName: __ZNSt3__1eqB7v160006ERKNS_14__map_iteratorINS_15__tree_iteratorINS_12__value_typeIiNS_3mapIiNS_4pairIi10TEXT_COLOREENS_4lessIiEENS_9allocatorINS4_IKiS6_EEEEEEEEPNS_11__tree_nodeISE_PvEElEEEESM_, symObjAddr: 0x2030, symBinAddr: 0x100005FD4, symSize: 0x30 }
  - { offsetInCU: 0xDD66, offset: 0x13BD8, size: 0x8, addend: 0x0, symName: __ZNSt3__1neB7v160006ERKNS_14__map_iteratorINS_15__tree_iteratorINS_12__value_typeIiNS_4pairIi10TEXT_COLOREEEEPNS_11__tree_nodeIS6_PvEElEEEESE_, symObjAddr: 0x2260, symBinAddr: 0x1000061B0, symSize: 0x30 }
  - { offsetInCU: 0xDDA3, offset: 0x13C15, size: 0x8, addend: 0x0, symName: __ZNSt3__1neB7v160006ERKNS_14__map_iteratorINS_15__tree_iteratorINS_12__value_typeIiNS_3mapIiNS_4pairIi10TEXT_COLOREENS_4lessIiEENS_9allocatorINS4_IKiS6_EEEEEEEEPNS_11__tree_nodeISE_PvEElEEEESM_, symObjAddr: 0x2744, symBinAddr: 0x100006694, symSize: 0x30 }
  - { offsetInCU: 0xDDE0, offset: 0x13C52, size: 0x8, addend: 0x0, symName: __ZNSt3__119__debug_db_insert_cB7v160006INS_6vectorIP10ECObserverNS_9allocatorIS3_EEEEEEvPT_, symObjAddr: 0x28D8, symBinAddr: 0x100006828, symSize: 0x10 }
  - { offsetInCU: 0xDE11, offset: 0x13C83, size: 0x8, addend: 0x0, symName: __ZNSt3__118__debug_db_erase_cB7v160006INS_6vectorIP10ECObserverNS_9allocatorIS3_EEEEEEvPT_, symObjAddr: 0x2C60, symBinAddr: 0x100006BB0, symSize: 0x10 }
  - { offsetInCU: 0xDE42, offset: 0x13CB4, size: 0x8, addend: 0x0, symName: __ZNSt3__112__to_addressB7v160006IP10ECObserverEEPT_S4_, symObjAddr: 0x2DA4, symBinAddr: 0x100006CF4, symSize: 0x14 }
  - { offsetInCU: 0xDE78, offset: 0x13CEA, size: 0x8, addend: 0x0, symName: __ZNSt3__119__libcpp_deallocateB7v160006EPvmm, symObjAddr: 0x2F14, symBinAddr: 0x100006E58, symSize: 0x30 }
  - { offsetInCU: 0xDEC1, offset: 0x13D33, size: 0x8, addend: 0x0, symName: __ZNSt3__127__do_deallocate_handle_sizeB7v160006IJEEEvPvmDpT_, symObjAddr: 0x2F44, symBinAddr: 0x100006E88, symSize: 0x28 }
  - { offsetInCU: 0xDF01, offset: 0x13D73, size: 0x8, addend: 0x0, symName: __ZNSt3__124__libcpp_operator_deleteB7v160006IJPvEEEvDpT_, symObjAddr: 0x2F6C, symBinAddr: 0x100006EB0, symSize: 0x24 }
  - { offsetInCU: 0xDF37, offset: 0x13DA9, size: 0x8, addend: 0x0, symName: __ZNSt3__112__to_addressB7v160006IKcEEPT_S3_, symObjAddr: 0x3260, symBinAddr: 0x1000071A4, symSize: 0x14 }
  - { offsetInCU: 0xDFA0, offset: 0x13E12, size: 0x8, addend: 0x0, symName: __ZNSt3__119__debug_db_insert_cB7v160006INS_6vectorINS_12basic_stringIcNS_11char_traitsIcEENS_9allocatorIcEEEENS5_IS7_EEEEEEvPT_, symObjAddr: 0x3634, symBinAddr: 0x1000072F8, symSize: 0x10 }
  - { offsetInCU: 0xDFD1, offset: 0x13E43, size: 0x8, addend: 0x0, symName: __ZNSt3__118__debug_db_erase_cB7v160006INS_6vectorINS_12basic_stringIcNS_11char_traitsIcEENS_9allocatorIcEEEENS5_IS7_EEEEEEvPT_, symObjAddr: 0x3A5C, symBinAddr: 0x100007720, symSize: 0x10 }
  - { offsetInCU: 0xE002, offset: 0x13E74, size: 0x8, addend: 0x0, symName: __ZNSt3__112__to_addressB7v160006INS_12basic_stringIcNS_11char_traitsIcEENS_9allocatorIcEEEEEEPT_S8_, symObjAddr: 0x3B78, symBinAddr: 0x10000783C, symSize: 0x14 }
  - { offsetInCU: 0xE038, offset: 0x13EAA, size: 0x8, addend: 0x0, symName: __ZNSt3__125__debug_db_invalidate_allB7v160006INS_6vectorIbNS_9allocatorIbEEE16__destroy_vectorEEEvPT_, symObjAddr: 0x3F24, symBinAddr: 0x100007BE8, symSize: 0x10 }
  - { offsetInCU: 0xE069, offset: 0x13EDB, size: 0x8, addend: 0x0, symName: __ZNSt3__116__pad_and_outputB7v160006IcNS_11char_traitsIcEEEENS_19ostreambuf_iteratorIT_T0_EES6_PKS4_S8_S8_RNS_8ios_baseES4_, symObjAddr: 0x4224, symBinAddr: 0x100007EE8, symSize: 0x248 }
  - { offsetInCU: 0xE139, offset: 0x13FAB, size: 0x8, addend: 0x0, symName: __ZNSt3__19use_facetB7v160006INS_5ctypeIcEEEERKT_RKNS_6localeE, symObjAddr: 0x47DC, symBinAddr: 0x1000084A0, symSize: 0x2C }
  - { offsetInCU: 0xE612, offset: 0x14484, size: 0x8, addend: 0x0, symName: __ZNSt3__13maxB7v160006ImEERKT_S3_S3_, symObjAddr: 0x4E50, symBinAddr: 0x100008B14, symSize: 0x2C }
  - { offsetInCU: 0xE655, offset: 0x144C7, size: 0x8, addend: 0x0, symName: __ZNSt3__13minB7v160006ImEERKT_S3_S3_, symObjAddr: 0x4E7C, symBinAddr: 0x100008B40, symSize: 0x2C }
  - { offsetInCU: 0xE8A3, offset: 0x14715, size: 0x8, addend: 0x0, symName: __ZNSt3__13minB7v160006ImNS_6__lessImmEEEERKT_S5_S5_T0_, symObjAddr: 0x4F08, symBinAddr: 0x100008BCC, symSize: 0x54 }
  - { offsetInCU: 0xE938, offset: 0x147AA, size: 0x8, addend: 0x0, symName: __ZNSt3__120__throw_length_errorB7v160006EPKc, symObjAddr: 0x4FE8, symBinAddr: 0x100008CAC, symSize: 0x64 }
  - { offsetInCU: 0xE961, offset: 0x147D3, size: 0x8, addend: 0x0, symName: __ZNSt3__13maxB7v160006ImNS_6__lessImmEEEERKT_S5_S5_T0_, symObjAddr: 0x50CC, symBinAddr: 0x100008D90, symSize: 0x54 }
  - { offsetInCU: 0xE9BB, offset: 0x1482D, size: 0x8, addend: 0x0, symName: __ZNSt3__119__allocate_at_leastB7v160006INS_9allocatorINS_12basic_stringIcNS_11char_traitsIcEENS1_IcEEEEEEEENS_19__allocation_resultINS_16allocator_traitsIT_E7pointerEEERSA_m, symObjAddr: 0x523C, symBinAddr: 0x100008F00, symSize: 0x40 }
  - { offsetInCU: 0xE9FE, offset: 0x14870, size: 0x8, addend: 0x0, symName: __ZNSt3__142__uninitialized_allocator_move_if_noexceptB7v160006INS_9allocatorINS_12basic_stringIcNS_11char_traitsIcEENS1_IcEEEEEENS_16reverse_iteratorIPS6_EESA_SA_EET2_RT_T0_T1_SB_, symObjAddr: 0x54A4, symBinAddr: 0x1000090E8, symSize: 0x134 }
  - { offsetInCU: 0xEA9E, offset: 0x14910, size: 0x8, addend: 0x0, symName: __ZNSt3__14swapB7v160006IPNS_12basic_stringIcNS_11char_traitsIcEENS_9allocatorIcEEEEEEvRT_S9_, symObjAddr: 0x5624, symBinAddr: 0x100009268, symSize: 0x3C }
  - { offsetInCU: 0xEAF0, offset: 0x14962, size: 0x8, addend: 0x0, symName: __ZNSt3__125__debug_db_invalidate_allB7v160006INS_6vectorINS_12basic_stringIcNS_11char_traitsIcEENS_9allocatorIcEEEENS5_IS7_EEEEEEvPT_, symObjAddr: 0x5728, symBinAddr: 0x10000936C, symSize: 0x10 }
  - { offsetInCU: 0xEB21, offset: 0x14993, size: 0x8, addend: 0x0, symName: __ZNSt3__122__make_exception_guardB7v160006INS_29_AllocatorDestroyRangeReverseINS_9allocatorINS_12basic_stringIcNS_11char_traitsIcEENS2_IcEEEEEENS_16reverse_iteratorIPS7_EEEEEENS_28__exception_guard_exceptionsIT_EESE_, symObjAddr: 0x5738, symBinAddr: 0x10000937C, symSize: 0x4C }
  - { offsetInCU: 0xEB57, offset: 0x149C9, size: 0x8, addend: 0x0, symName: __ZNSt3__1neB7v160006IPNS_12basic_stringIcNS_11char_traitsIcEENS_9allocatorIcEEEES7_EEbRKNS_16reverse_iteratorIT_EERKNS8_IT0_EE, symObjAddr: 0x57C8, symBinAddr: 0x10000940C, symSize: 0x48 }
  - { offsetInCU: 0xEBA3, offset: 0x14A15, size: 0x8, addend: 0x0, symName: __ZNSt3__112__to_addressB7v160006INS_16reverse_iteratorIPNS_12basic_stringIcNS_11char_traitsIcEENS_9allocatorIcEEEEEEvEENS_5decayIDTclsr19__to_address_helperIT_EE6__callclsr3stdE7declvalIRKSB_EEEEE4typeESD_, symObjAddr: 0x5810, symBinAddr: 0x100009454, symSize: 0x24 }
  - { offsetInCU: 0xEC03, offset: 0x14A75, size: 0x8, addend: 0x0, symName: __ZNSt3__119__allocator_destroyB7v160006INS_9allocatorINS_12basic_stringIcNS_11char_traitsIcEENS1_IcEEEEEENS_16reverse_iteratorINS8_IPS6_EEEESB_EEvRT_T0_T1_, symObjAddr: 0x5ACC, symBinAddr: 0x100009710, symSize: 0x70 }
  - { offsetInCU: 0xEC69, offset: 0x14ADB, size: 0x8, addend: 0x0, symName: __ZNSt3__1neB7v160006INS_16reverse_iteratorIPNS_12basic_stringIcNS_11char_traitsIcEENS_9allocatorIcEEEEEES9_EEbRKNS1_IT_EERKNS1_IT0_EE, symObjAddr: 0x5B78, symBinAddr: 0x1000097BC, symSize: 0x60 }
  - { offsetInCU: 0xECB5, offset: 0x14B27, size: 0x8, addend: 0x0, symName: __ZNSt3__112__to_addressB7v160006INS_16reverse_iteratorINS1_IPNS_12basic_stringIcNS_11char_traitsIcEENS_9allocatorIcEEEEEEEEvEENS_5decayIDTclsr19__to_address_helperIT_EE6__callclsr3stdE7declvalIRKSC_EEEEE4typeESE_, symObjAddr: 0x5BD8, symBinAddr: 0x10000981C, symSize: 0x24 }
  - { offsetInCU: 0xED34, offset: 0x14BA6, size: 0x8, addend: 0x0, symName: __ZNSt3__125__debug_db_invalidate_allB7v160006INS_6vectorIbNS_9allocatorIbEEEEEEvPT_, symObjAddr: 0x66D4, symBinAddr: 0x10000A318, symSize: 0x10 }
  - { offsetInCU: 0xEF71, offset: 0x14DE3, size: 0x8, addend: 0x0, symName: __ZNSt3__119__allocate_at_leastB7v160006INS_9allocatorImEEEENS_19__allocation_resultINS_16allocator_traitsIT_E7pointerEEERS5_m, symObjAddr: 0x6970, symBinAddr: 0x10000A5B4, symSize: 0x40 }
  - { offsetInCU: 0xEFDB, offset: 0x14E4D, size: 0x8, addend: 0x0, symName: __ZNSt3__114__construct_atB7v160006ImJEPmEEPT_S3_DpOT0_, symObjAddr: 0x69D4, symBinAddr: 0x10000A618, symSize: 0x20 }
  - { offsetInCU: 0xF03B, offset: 0x14EAD, size: 0x8, addend: 0x0, symName: __ZNSt3__112__to_addressB7v160006ImEEPT_S2_, symObjAddr: 0x69F4, symBinAddr: 0x10000A638, symSize: 0x14 }
  - { offsetInCU: 0xF071, offset: 0x14EE3, size: 0x8, addend: 0x0, symName: __ZNSt3__18distanceB7v160006INS_14__bit_iteratorINS_6vectorIbNS_9allocatorIbEEEELb0ELm0EEEEENS_15iterator_traitsIT_E15difference_typeES8_S8_, symObjAddr: 0x6A8C, symBinAddr: 0x10000A6D0, symSize: 0x5C }
  - { offsetInCU: 0xF0B6, offset: 0x14F28, size: 0x8, addend: 0x0, symName: __ZNSt3__14copyB7v160006INS_6vectorIbNS_9allocatorIbEEEELb0EEENS_14__bit_iteratorIT_Lb0EXLi0EEEENS5_IS6_XT0_EXLi0EEEES8_S7_, symObjAddr: 0x6B1C, symBinAddr: 0x10000A760, symSize: 0xE8 }
  - { offsetInCU: 0xF118, offset: 0x14F8A, size: 0x8, addend: 0x0, symName: __ZNSt3__110__distanceB7v160006INS_14__bit_iteratorINS_6vectorIbNS_9allocatorIbEEEELb0ELm0EEEEENS_15iterator_traitsIT_E15difference_typeES8_S8_NS_26random_access_iterator_tagE, symObjAddr: 0x6C68, symBinAddr: 0x10000A8AC, symSize: 0x38 }
  - { offsetInCU: 0xF167, offset: 0x14FD9, size: 0x8, addend: 0x0, symName: __ZNSt3__1miB7v160006ERKNS_14__bit_iteratorINS_6vectorIbNS_9allocatorIbEEEELb0ELm0EEES7_, symObjAddr: 0x6CA0, symBinAddr: 0x10000A8E4, symSize: 0x48 }
  - { offsetInCU: 0xF1A5, offset: 0x15017, size: 0x8, addend: 0x0, symName: __ZNSt3__13minB7v160006IlEERKT_S3_S3_, symObjAddr: 0x74D0, symBinAddr: 0x10000B114, symSize: 0x2C }
  - { offsetInCU: 0xF1E8, offset: 0x1505A, size: 0x8, addend: 0x0, symName: __ZNSt3__13minB7v160006IlNS_6__lessIllEEEERKT_S5_S5_T0_, symObjAddr: 0x7540, symBinAddr: 0x10000B184, symSize: 0x54 }
  - { offsetInCU: 0xF27D, offset: 0x150EF, size: 0x8, addend: 0x0, symName: __ZNSt3__14copyB7v160006IPmS1_EET0_T_S3_S2_, symObjAddr: 0x75C8, symBinAddr: 0x10000B20C, symSize: 0x40 }
  - { offsetInCU: 0xF2D7, offset: 0x15149, size: 0x8, addend: 0x0, symName: __ZNSt3__16__copyB7v160006INS_17_ClassicAlgPolicyEPmS2_S2_EENS_4pairIT0_T2_EES4_T1_S5_, symObjAddr: 0x7608, symBinAddr: 0x10000B24C, symSize: 0x44 }
  - { offsetInCU: 0xF343, offset: 0x151B5, size: 0x8, addend: 0x0, symName: __ZNSt3__123__dispatch_copy_or_moveB7v160006INS_17_ClassicAlgPolicyENS_11__copy_loopIS1_EENS_14__copy_trivialEPmS5_S5_EENS_4pairIT2_T4_EES7_T3_S8_, symObjAddr: 0x764C, symBinAddr: 0x10000B290, symSize: 0x54 }
  - { offsetInCU: 0xF3C1, offset: 0x15233, size: 0x8, addend: 0x0, symName: __ZNSt3__121__unwrap_and_dispatchB7v160006INS_10__overloadINS_11__copy_loopINS_17_ClassicAlgPolicyEEENS_14__copy_trivialEEEPmS7_S7_Li0EEENS_4pairIT0_T2_EES9_T1_SA_, symObjAddr: 0x76A0, symBinAddr: 0x10000B2E4, symSize: 0xB4 }
  - { offsetInCU: 0xF450, offset: 0x152C2, size: 0x8, addend: 0x0, symName: __ZNSt3__114__unwrap_rangeB7v160006IPmS1_EENS_4pairIT0_S3_EET_S5_, symObjAddr: 0x7754, symBinAddr: 0x10000B398, symSize: 0x60 }
  - { offsetInCU: 0xF590, offset: 0x15402, size: 0x8, addend: 0x0, symName: __ZNSt3__113__unwrap_iterB7v160006IPmNS_18__unwrap_iter_implIS1_Lb1EEELi0EEEDTclsrT0_8__unwrapclsr3stdE7declvalIT_EEEES5_, symObjAddr: 0x77FC, symBinAddr: 0x10000B440, symSize: 0x24 }
  - { offsetInCU: 0xF5D5, offset: 0x15447, size: 0x8, addend: 0x0, symName: __ZNSt3__19make_pairB7v160006IPmS1_EENS_4pairINS_18__unwrap_ref_decayIT_E4typeENS3_IT0_E4typeEEEOS4_OS7_, symObjAddr: 0x7820, symBinAddr: 0x10000B464, symSize: 0x38 }
  - { offsetInCU: 0xF624, offset: 0x15496, size: 0x8, addend: 0x0, symName: __ZNSt3__114__rewrap_rangeB7v160006IPmS1_EET_S2_T0_, symObjAddr: 0x7858, symBinAddr: 0x10000B49C, symSize: 0x2C }
  - { offsetInCU: 0xF670, offset: 0x154E2, size: 0x8, addend: 0x0, symName: __ZNSt3__113__rewrap_iterB7v160006IPmS1_NS_18__unwrap_iter_implIS1_Lb1EEEEET_S4_T0_, symObjAddr: 0x7884, symBinAddr: 0x10000B4C8, symSize: 0x50 }
  - { offsetInCU: 0xF6C5, offset: 0x15537, size: 0x8, addend: 0x0, symName: __ZNSt3__119__copy_trivial_implB7v160006ImmEENS_4pairIPT_PT0_EES3_S3_S5_, symObjAddr: 0x78D4, symBinAddr: 0x10000B518, symSize: 0x84 }
  - { offsetInCU: 0xF72D, offset: 0x1559F, size: 0x8, addend: 0x0, symName: __ZNSt3__19make_pairB7v160006IRPmS1_EENS_4pairINS_18__unwrap_ref_decayIT_E4typeENS4_IT0_E4typeEEEOS5_OS8_, symObjAddr: 0x7958, symBinAddr: 0x10000B59C, symSize: 0x38 }
  - { offsetInCU: 0xF7CF, offset: 0x15641, size: 0x8, addend: 0x0, symName: __ZNSt3__14swapB7v160006IPmEEvRT_S3_, symObjAddr: 0x7ADC, symBinAddr: 0x10000B720, symSize: 0x3C }
  - { offsetInCU: 0xF821, offset: 0x15693, size: 0x8, addend: 0x0, symName: __ZNSt3__14swapB7v160006ImEEvRT_S2_, symObjAddr: 0x7B18, symBinAddr: 0x10000B75C, symSize: 0x3C }
  - { offsetInCU: 0xF873, offset: 0x156E5, size: 0x8, addend: 0x0, symName: __ZNSt3__116__swap_allocatorB7v160006INS_9allocatorImEEEEvRT_S4_NS_17integral_constantIbLb0EEE, symObjAddr: 0x7B54, symBinAddr: 0x10000B798, symSize: 0x14 }
  - { offsetInCU: 0xF8E7, offset: 0x15759, size: 0x8, addend: 0x0, symName: __ZNSt3__125__debug_db_invalidate_allB7v160006INS_12basic_stringIcNS_11char_traitsIcEENS_9allocatorIcEEEEEEvPT_, symObjAddr: 0x8AD0, symBinAddr: 0x10000C2F8, symSize: 0x10 }
  - { offsetInCU: 0xF94B, offset: 0x157BD, size: 0x8, addend: 0x0, symName: __ZNSt3__1neB7v160006ERKNS_15__tree_iteratorINS_12__value_typeIiNS_3mapIiNS_4pairIi10TEXT_COLOREENS_4lessIiEENS_9allocatorINS3_IKiS5_EEEEEEEEPNS_11__tree_nodeISD_PvEElEESK_, symObjAddr: 0x8DB0, symBinAddr: 0x10000C5D8, symSize: 0x34 }
  - { offsetInCU: 0xF988, offset: 0x157FA, size: 0x8, addend: 0x0, symName: __ZNSt3__1eqB7v160006ERKNS_15__tree_iteratorINS_12__value_typeIiNS_3mapIiNS_4pairIi10TEXT_COLOREENS_4lessIiEENS_9allocatorINS3_IKiS5_EEEEEEEEPNS_11__tree_nodeISD_PvEElEESK_, symObjAddr: 0x8F9C, symBinAddr: 0x10000C7C4, symSize: 0x30 }
  - { offsetInCU: 0xF9E4, offset: 0x15856, size: 0x8, addend: 0x0, symName: __ZNSt3__127__tree_balance_after_insertB7v160006IPNS_16__tree_node_baseIPvEEEEvT_S5_, symObjAddr: 0x9C64, symBinAddr: 0x10000D430, symSize: 0x340 }
  - { offsetInCU: 0xFA5A, offset: 0x158CC, size: 0x8, addend: 0x0, symName: __ZNSt3__120__tree_is_left_childB7v160006IPNS_16__tree_node_baseIPvEEEEbT_, symObjAddr: 0x9FE4, symBinAddr: 0x10000D7B0, symSize: 0x2C }
  - { offsetInCU: 0xFA90, offset: 0x15902, size: 0x8, addend: 0x0, symName: __ZNSt3__118__tree_left_rotateB7v160006IPNS_16__tree_node_baseIPvEEEEvT_, symObjAddr: 0xA010, symBinAddr: 0x10000D7DC, symSize: 0xEC }
  - { offsetInCU: 0xFAD3, offset: 0x15945, size: 0x8, addend: 0x0, symName: __ZNSt3__119__tree_right_rotateB7v160006IPNS_16__tree_node_baseIPvEEEEvT_, symObjAddr: 0xA0FC, symBinAddr: 0x10000D8C8, symSize: 0xCC }
  - { offsetInCU: 0xFB16, offset: 0x15988, size: 0x8, addend: 0x0, symName: __ZNSt3__1neB7v160006ERKNS_15__tree_iteratorINS_12__value_typeIiNS_4pairIi10TEXT_COLOREEEEPNS_11__tree_nodeIS5_PvEElEESC_, symObjAddr: 0xA5DC, symBinAddr: 0x10000DDA8, symSize: 0x34 }
  - { offsetInCU: 0xFB53, offset: 0x159C5, size: 0x8, addend: 0x0, symName: __ZNSt3__1eqB7v160006ERKNS_15__tree_iteratorINS_12__value_typeIiNS_4pairIi10TEXT_COLOREEEEPNS_11__tree_nodeIS5_PvEElEESC_, symObjAddr: 0xA794, symBinAddr: 0x10000DF60, symSize: 0x30 }
  - { offsetInCU: 0xFC15, offset: 0x15A87, size: 0x8, addend: 0x0, symName: __ZNSt3__113__tree_removeB7v160006IPNS_16__tree_node_baseIPvEEEEvT_S5_, symObjAddr: 0xB6BC, symBinAddr: 0x10000EE88, symSize: 0x6E0 }
  - { offsetInCU: 0xFC94, offset: 0x15B06, size: 0x8, addend: 0x0, symName: __ZNSt3__116__tree_next_iterB7v160006IPNS_15__tree_end_nodeIPNS_16__tree_node_baseIPvEEEES5_EET_T0_, symObjAddr: 0xBDBC, symBinAddr: 0x10000F588, symSize: 0x80 }
  - { offsetInCU: 0xFCD2, offset: 0x15B44, size: 0x8, addend: 0x0, symName: __ZNSt3__110__tree_minB7v160006IPNS_16__tree_node_baseIPvEEEET_S5_, symObjAddr: 0xBE3C, symBinAddr: 0x10000F608, symSize: 0x40 }
  - { offsetInCU: 0xFD08, offset: 0x15B7A, size: 0x8, addend: 0x0, symName: __ZNSt3__111__tree_nextB7v160006IPNS_16__tree_node_baseIPvEEEET_S5_, symObjAddr: 0xBE7C, symBinAddr: 0x10000F648, symSize: 0x80 }
  - { offsetInCU: 0x10796, offset: 0x16608, size: 0x8, addend: 0x0, symName: __ZNSt3__16vectorINS_12basic_stringIcNS_11char_traitsIcEENS_9allocatorIcEEEENS4_IS6_EEE26__swap_out_circular_bufferERNS_14__split_bufferIS6_RS7_EE, symObjAddr: 0x4C7C, symBinAddr: 0x100008940, symSize: 0x118 }
  - { offsetInCU: 0x12E46, offset: 0x18CB8, size: 0x8, addend: 0x0, symName: __ZN16ECTextViewConfigC2Ev, symObjAddr: 0x0, symBinAddr: 0x100004010, symSize: 0xE0 }
  - { offsetInCU: 0x12E70, offset: 0x18CE2, size: 0x8, addend: 0x0, symName: __ZNSt3__16vectorINS_12basic_stringIcNS_11char_traitsIcEENS_9allocatorIcEEEENS4_IS6_EEEC1B7v160006Ev, symObjAddr: 0xE0, symBinAddr: 0x1000040F0, symSize: 0x2C }
  - { offsetInCU: 0x12E98, offset: 0x18D0A, size: 0x8, addend: 0x0, symName: __ZNSt3__16vectorIbNS_9allocatorIbEEEC1B7v160006Ev, symObjAddr: 0x10C, symBinAddr: 0x10000411C, symSize: 0x2C }
  - { offsetInCU: 0x12EC3, offset: 0x18D35, size: 0x8, addend: 0x0, symName: __ZN16ECTextViewConfig10InitParamsEv, symObjAddr: 0x138, symBinAddr: 0x100004148, symSize: 0x1C }
  - { offsetInCU: 0x12EE9, offset: 0x18D5B, size: 0x8, addend: 0x0, symName: __ZN16ECTextViewConfig11InitWndSizeEv, symObjAddr: 0x154, symBinAddr: 0x100004164, symSize: 0x2E0 }
  - { offsetInCU: 0x12F7B, offset: 0x18DED, size: 0x8, addend: 0x0, symName: __ZNSt3__16vectorIbNS_9allocatorIbEEED1B7v160006Ev, symObjAddr: 0x434, symBinAddr: 0x100004444, symSize: 0x2C }
  - { offsetInCU: 0x12FA3, offset: 0x18E15, size: 0x8, addend: 0x0, symName: __ZNSt3__16vectorINS_12basic_stringIcNS_11char_traitsIcEENS_9allocatorIcEEEENS4_IS6_EEED1B7v160006Ev, symObjAddr: 0x46C, symBinAddr: 0x100004470, symSize: 0x2C }
  - { offsetInCU: 0x12FCB, offset: 0x18E3D, size: 0x8, addend: 0x0, symName: __ZN16ECTextViewConfigC1Ev, symObjAddr: 0x498, symBinAddr: 0x10000449C, symSize: 0x2C }
  - { offsetInCU: 0x12FF5, offset: 0x18E67, size: 0x8, addend: 0x0, symName: __ZNK16ECTextViewConfig4DumpEv, symObjAddr: 0x4C4, symBinAddr: 0x1000044C8, symSize: 0x68 }
  - { offsetInCU: 0x1301B, offset: 0x18E8D, size: 0x8, addend: 0x0, symName: __ZN16ECTextViewConfig17GetCursorPositionEiiPiS0_, symObjAddr: 0x574, symBinAddr: 0x100004578, symSize: 0x1B0 }
  - { offsetInCU: 0x1309A, offset: 0x18F0C, size: 0x8, addend: 0x0, symName: __ZN16ECTextViewConfig12AddStatusRowERKNSt3__112basic_stringIcNS0_11char_traitsIcEENS0_9allocatorIcEEEES8_b, symObjAddr: 0x758, symBinAddr: 0x100004728, symSize: 0x68 }
  - { offsetInCU: 0x130EA, offset: 0x18F5C, size: 0x8, addend: 0x0, symName: __ZNSt3__16vectorINS_12basic_stringIcNS_11char_traitsIcEENS_9allocatorIcEEEENS4_IS6_EEE9push_backB7v160006ERKS6_, symObjAddr: 0x7C0, symBinAddr: 0x100004790, symSize: 0x6C }
  - { offsetInCU: 0x13120, offset: 0x18F92, size: 0x8, addend: 0x0, symName: __ZNSt3__16vectorIbNS_9allocatorIbEEE9push_backERKb, symObjAddr: 0x82C, symBinAddr: 0x1000047FC, symSize: 0xA4 }
  - { offsetInCU: 0x134E1, offset: 0x19353, size: 0x8, addend: 0x0, symName: __ZN13ECTextViewImpC2Ev, symObjAddr: 0x8D0, symBinAddr: 0x1000048A0, symSize: 0x168 }
  - { offsetInCU: 0x1350B, offset: 0x1937D, size: 0x8, addend: 0x0, symName: __ZN17ECObserverSubjectC2Ev, symObjAddr: 0xA38, symBinAddr: 0x100004A08, symSize: 0x40 }
  - { offsetInCU: 0x13533, offset: 0x193A5, size: 0x8, addend: 0x0, symName: __ZNSt3__13mapIiNS0_IiNS_4pairIi10TEXT_COLOREENS_4lessIiEENS_9allocatorINS1_IKiS3_EEEEEES5_NS6_INS1_IS7_SA_EEEEEC1B7v160006Ev, symObjAddr: 0xAA4, symBinAddr: 0x100004A48, symSize: 0x2C }
  - { offsetInCU: 0x1355B, offset: 0x193CD, size: 0x8, addend: 0x0, symName: __ZN13ECTextViewImp4InitEv, symObjAddr: 0xAD0, symBinAddr: 0x100004A74, symSize: 0x24 }
  - { offsetInCU: 0x13581, offset: 0x193F3, size: 0x8, addend: 0x0, symName: __ZNSt3__13mapIiNS0_IiNS_4pairIi10TEXT_COLOREENS_4lessIiEENS_9allocatorINS1_IKiS3_EEEEEES5_NS6_INS1_IS7_SA_EEEEED1B7v160006Ev, symObjAddr: 0xAF4, symBinAddr: 0x100004A98, symSize: 0x2C }
  - { offsetInCU: 0x135A9, offset: 0x1941B, size: 0x8, addend: 0x0, symName: __ZN16ECTextViewConfigD1Ev, symObjAddr: 0xB20, symBinAddr: 0x100004AC4, symSize: 0x2C }
  - { offsetInCU: 0x135D3, offset: 0x19445, size: 0x8, addend: 0x0, symName: __ZN17ECObserverSubjectD2Ev, symObjAddr: 0xB4C, symBinAddr: 0x100004AF0, symSize: 0x40 }
  - { offsetInCU: 0x135FB, offset: 0x1946D, size: 0x8, addend: 0x0, symName: __ZN13ECTextViewImpC1Ev, symObjAddr: 0xB8C, symBinAddr: 0x100004B30, symSize: 0x2C }
  - { offsetInCU: 0x13625, offset: 0x19497, size: 0x8, addend: 0x0, symName: __ZN13ECTextViewImpD2Ev, symObjAddr: 0xBB8, symBinAddr: 0x100004B5C, symSize: 0x110 }
  - { offsetInCU: 0x1364F, offset: 0x194C1, size: 0x8, addend: 0x0, symName: __ZN13ECTextViewImpD1Ev, symObjAddr: 0xCC8, symBinAddr: 0x100004C6C, symSize: 0x2C }
  - { offsetInCU: 0x13679, offset: 0x194EB, size: 0x8, addend: 0x0, symName: __ZN13ECTextViewImpD0Ev, symObjAddr: 0xCF4, symBinAddr: 0x100004C98, symSize: 0x58 }
  - { offsetInCU: 0x136A3, offset: 0x19515, size: 0x8, addend: 0x0, symName: __ZL13EnableRawModei, symObjAddr: 0xD4C, symBinAddr: 0x100004CF0, symSize: 0x228 }
  - { offsetInCU: 0x136DB, offset: 0x1954D, size: 0x8, addend: 0x0, symName: __ZN13ECTextViewImp4ShowEv, symObjAddr: 0xF74, symBinAddr: 0x100004F18, symSize: 0x88 }
  - { offsetInCU: 0x13701, offset: 0x19573, size: 0x8, addend: 0x0, symName: __ZNK13ECTextViewImp10ShouldQuitEv, symObjAddr: 0xFFC, symBinAddr: 0x100004FA0, symSize: 0x1C }
  - { offsetInCU: 0x13725, offset: 0x19597, size: 0x8, addend: 0x0, symName: __ZN13ECTextViewImp7RefreshEv, symObjAddr: 0x1018, symBinAddr: 0x100004FBC, symSize: 0xCC }
  - { offsetInCU: 0x13767, offset: 0x195D9, size: 0x8, addend: 0x0, symName: __ZN13ECTextViewImp7ReadKeyEi, symObjAddr: 0x10E4, symBinAddr: 0x100005088, symSize: 0x2CC }
  - { offsetInCU: 0x137CB, offset: 0x1963D, size: 0x8, addend: 0x0, symName: __ZN13ECTextViewImp4QuitEv, symObjAddr: 0x13D0, symBinAddr: 0x100005374, symSize: 0x40 }
  - { offsetInCU: 0x137F3, offset: 0x19665, size: 0x8, addend: 0x0, symName: __ZN17ECObserverSubject6NotifyEv, symObjAddr: 0x1410, symBinAddr: 0x1000053B4, symSize: 0x8C }
  - { offsetInCU: 0x13833, offset: 0x196A5, size: 0x8, addend: 0x0, symName: __ZN13ECTextViewImp11ClearBufferEv, symObjAddr: 0x149C, symBinAddr: 0x100005440, symSize: 0x54 }
  - { offsetInCU: 0x1385B, offset: 0x196CD, size: 0x8, addend: 0x0, symName: __ZNKSt3__16vectorINS_12basic_stringIcNS_11char_traitsIcEENS_9allocatorIcEEEENS4_IS6_EEE4sizeB7v160006Ev, symObjAddr: 0x14F0, symBinAddr: 0x100005494, symSize: 0x28 }
  - { offsetInCU: 0x1387F, offset: 0x196F1, size: 0x8, addend: 0x0, symName: __ZN13ECTextViewImp15AppendRowBufferEiRKNSt3__112basic_stringIcNS0_11char_traitsIcEENS0_9allocatorIcEEEE, symObjAddr: 0x1518, symBinAddr: 0x1000054BC, symSize: 0x300 }
  - { offsetInCU: 0x13950, offset: 0x197C2, size: 0x8, addend: 0x0, symName: __ZNSt3__16vectorINS_12basic_stringIcNS_11char_traitsIcEENS_9allocatorIcEEEENS4_IS6_EEEixB7v160006Em, symObjAddr: 0x1818, symBinAddr: 0x1000057BC, symSize: 0x2C }
  - { offsetInCU: 0x13986, offset: 0x197F8, size: 0x8, addend: 0x0, symName: __ZN13ECTextViewImp16FinishRowsBufferEv, symObjAddr: 0x1844, symBinAddr: 0x1000057E8, symSize: 0x2A4 }
  - { offsetInCU: 0x13A3F, offset: 0x198B1, size: 0x8, addend: 0x0, symName: __ZNKSt3__112basic_stringIcNS_11char_traitsIcEENS_9allocatorIcEEE5c_strB7v160006Ev, symObjAddr: 0x1AE8, symBinAddr: 0x100005A8C, symSize: 0x24 }
  - { offsetInCU: 0x13A63, offset: 0x198D5, size: 0x8, addend: 0x0, symName: __ZNKSt3__112basic_stringIcNS_11char_traitsIcEENS_9allocatorIcEEE6lengthB7v160006Ev, symObjAddr: 0x1B0C, symBinAddr: 0x100005AB0, symSize: 0x24 }
  - { offsetInCU: 0x13A87, offset: 0x198F9, size: 0x8, addend: 0x0, symName: __ZN13ECTextViewImp6AddRowERKNSt3__112basic_stringIcNS0_11char_traitsIcEENS0_9allocatorIcEEEE, symObjAddr: 0x1B30, symBinAddr: 0x100005AD4, symSize: 0x30 }
  - { offsetInCU: 0x13ABB, offset: 0x1992D, size: 0x8, addend: 0x0, symName: __ZNK13ECTextViewImp10GetNumRowsEv, symObjAddr: 0x1B60, symBinAddr: 0x100005B04, symSize: 0x28 }
  - { offsetInCU: 0x13ADF, offset: 0x19951, size: 0x8, addend: 0x0, symName: __ZNK16ECTextViewConfig12GetWndRowNumEv, symObjAddr: 0x1B88, symBinAddr: 0x100005B2C, symSize: 0x3C }
  - { offsetInCU: 0x13B03, offset: 0x19975, size: 0x8, addend: 0x0, symName: __ZNSt3__112basic_stringIcNS_11char_traitsIcEENS_9allocatorIcEEEpLB7v160006EPKc, symObjAddr: 0x1BC4, symBinAddr: 0x100005B68, symSize: 0x2C }
  - { offsetInCU: 0x13B36, offset: 0x199A8, size: 0x8, addend: 0x0, symName: __ZNK16ECTextViewConfig16GetNumStatusRowsEv, symObjAddr: 0x1BF0, symBinAddr: 0x100005B94, symSize: 0x28 }
  - { offsetInCU: 0x13B5A, offset: 0x199CC, size: 0x8, addend: 0x0, symName: __ZN13ECTextViewImp15AppendStatusMsgEi, symObjAddr: 0x1C18, symBinAddr: 0x100005BBC, symSize: 0x318 }
  - { offsetInCU: 0x13BCF, offset: 0x19A41, size: 0x8, addend: 0x0, symName: __ZNK16ECTextViewConfig10GetCursorYEv, symObjAddr: 0x1F30, symBinAddr: 0x100005ED4, symSize: 0x18 }
  - { offsetInCU: 0x13BF3, offset: 0x19A65, size: 0x8, addend: 0x0, symName: __ZNK13ECTextViewImp6GetRowEi, symObjAddr: 0x1F48, symBinAddr: 0x100005EEC, symSize: 0x34 }
  - { offsetInCU: 0x13C25, offset: 0x19A97, size: 0x8, addend: 0x0, symName: __ZNK16ECTextViewConfig10GetCursorXEv, symObjAddr: 0x1F7C, symBinAddr: 0x100005F20, symSize: 0x18 }
  - { offsetInCU: 0x13C49, offset: 0x19ABB, size: 0x8, addend: 0x0, symName: __ZNSt3__112basic_stringIcNS_11char_traitsIcEENS_9allocatorIcEEE5clearB7v160006Ev, symObjAddr: 0x1F94, symBinAddr: 0x100005F38, symSize: 0x9C }
  - { offsetInCU: 0x13C70, offset: 0x19AE2, size: 0x8, addend: 0x0, symName: __ZNSt3__13mapIiNS0_IiNS_4pairIi10TEXT_COLOREENS_4lessIiEENS_9allocatorINS1_IKiS3_EEEEEES5_NS6_INS1_IS7_SA_EEEEE4findB7v160006ERS7_, symObjAddr: 0x2060, symBinAddr: 0x100006004, symSize: 0x40 }
  - { offsetInCU: 0x13CA3, offset: 0x19B15, size: 0x8, addend: 0x0, symName: __ZNSt3__13mapIiNS0_IiNS_4pairIi10TEXT_COLOREENS_4lessIiEENS_9allocatorINS1_IKiS3_EEEEEES5_NS6_INS1_IS7_SA_EEEEE3endB7v160006Ev, symObjAddr: 0x20A0, symBinAddr: 0x100006044, symSize: 0x38 }
  - { offsetInCU: 0x13CC7, offset: 0x19B39, size: 0x8, addend: 0x0, symName: __ZNSt3__112basic_stringIcNS_11char_traitsIcEENS_9allocatorIcEEEpLB7v160006ERKS5_, symObjAddr: 0x20D8, symBinAddr: 0x10000607C, symSize: 0x2C }
  - { offsetInCU: 0x13CFA, offset: 0x19B6C, size: 0x8, addend: 0x0, symName: __ZNSt3__13mapIiNS0_IiNS_4pairIi10TEXT_COLOREENS_4lessIiEENS_9allocatorINS1_IKiS3_EEEEEES5_NS6_INS1_IS7_SA_EEEEEixERS7_, symObjAddr: 0x2158, symBinAddr: 0x1000060A8, symSize: 0xC8 }
  - { offsetInCU: 0x13D73, offset: 0x19BE5, size: 0x8, addend: 0x0, symName: __ZNSt3__13mapIiNS_4pairIi10TEXT_COLOREENS_4lessIiEENS_9allocatorINS1_IKiS3_EEEEE4findB7v160006ERS7_, symObjAddr: 0x2220, symBinAddr: 0x100006170, symSize: 0x40 }
  - { offsetInCU: 0x13DA6, offset: 0x19C18, size: 0x8, addend: 0x0, symName: __ZNSt3__13mapIiNS_4pairIi10TEXT_COLOREENS_4lessIiEENS_9allocatorINS1_IKiS3_EEEEE3endB7v160006Ev, symObjAddr: 0x2290, symBinAddr: 0x1000061E0, symSize: 0x38 }
  - { offsetInCU: 0x13DCA, offset: 0x19C3C, size: 0x8, addend: 0x0, symName: __ZNKSt3__114__map_iteratorINS_15__tree_iteratorINS_12__value_typeIiNS_4pairIi10TEXT_COLOREEEEPNS_11__tree_nodeIS6_PvEElEEEptB7v160006Ev, symObjAddr: 0x22C8, symBinAddr: 0x100006218, symSize: 0x2C }
  - { offsetInCU: 0x13DEE, offset: 0x19C60, size: 0x8, addend: 0x0, symName: __ZNKSt3__112basic_stringIcNS_11char_traitsIcEENS_9allocatorIcEEEixB7v160006Em, symObjAddr: 0x22F4, symBinAddr: 0x100006244, symSize: 0x30 }
  - { offsetInCU: 0x13E21, offset: 0x19C93, size: 0x8, addend: 0x0, symName: __ZNSt3__112basic_stringIcNS_11char_traitsIcEENS_9allocatorIcEEEpLB7v160006Ec, symObjAddr: 0x2324, symBinAddr: 0x100006274, symSize: 0x34 }
  - { offsetInCU: 0x13E54, offset: 0x19CC6, size: 0x8, addend: 0x0, symName: __ZN13ECTextViewImp13GetPressedKeyEv, symObjAddr: 0x2358, symBinAddr: 0x1000062A8, symSize: 0x18 }
  - { offsetInCU: 0x13E7C, offset: 0x19CEE, size: 0x8, addend: 0x0, symName: __ZNK16ECTextViewConfig24IsStatusRowBlkBackgroundEi, symObjAddr: 0x2370, symBinAddr: 0x1000062C0, symSize: 0x48 }
  - { offsetInCU: 0x13EAE, offset: 0x19D20, size: 0x8, addend: 0x0, symName: __ZNK16ECTextViewConfig16GetStatusRowLeftEi, symObjAddr: 0x23B8, symBinAddr: 0x100006308, symSize: 0x44 }
  - { offsetInCU: 0x13EE0, offset: 0x19D52, size: 0x8, addend: 0x0, symName: __ZNK16ECTextViewConfig17GetStatusRowRightEi, symObjAddr: 0x23FC, symBinAddr: 0x10000634C, symSize: 0x44 }
  - { offsetInCU: 0x13F12, offset: 0x19D84, size: 0x8, addend: 0x0, symName: __ZNK13ECTextViewImp15GetColNumInViewEv, symObjAddr: 0x2440, symBinAddr: 0x100006390, symSize: 0x28 }
  - { offsetInCU: 0x13F36, offset: 0x19DA8, size: 0x8, addend: 0x0, symName: __ZNKSt3__112basic_stringIcNS_11char_traitsIcEENS_9allocatorIcEEE6substrB7v160006Emm, symObjAddr: 0x2468, symBinAddr: 0x1000063B8, symSize: 0x68 }
  - { offsetInCU: 0x13F78, offset: 0x19DEA, size: 0x8, addend: 0x0, symName: __ZN13ECTextViewImp8SetColorEiii10TEXT_COLOR, symObjAddr: 0x24D0, symBinAddr: 0x100006420, symSize: 0x140 }
  - { offsetInCU: 0x13FF9, offset: 0x19E6B, size: 0x8, addend: 0x0, symName: __ZNSt3__14pairIi10TEXT_COLOREC1B7v160006ERKiRKS1_, symObjAddr: 0x2610, symBinAddr: 0x100006560, symSize: 0x3C }
  - { offsetInCU: 0x1403D, offset: 0x19EAF, size: 0x8, addend: 0x0, symName: __ZNSt3__13mapIiNS_4pairIi10TEXT_COLOREENS_4lessIiEENS_9allocatorINS1_IKiS3_EEEEEixERS7_, symObjAddr: 0x264C, symBinAddr: 0x10000659C, symSize: 0xC8 }
  - { offsetInCU: 0x140B6, offset: 0x19F28, size: 0x8, addend: 0x0, symName: __ZNSt3__14pairIi10TEXT_COLOREaSB7v160006ERKS2_, symObjAddr: 0x2714, symBinAddr: 0x100006664, symSize: 0x30 }
  - { offsetInCU: 0x140E8, offset: 0x19F5A, size: 0x8, addend: 0x0, symName: __ZNSt3__13mapIiNS_4pairIi10TEXT_COLOREENS_4lessIiEENS_9allocatorINS1_IKiS3_EEEEE5eraseB7v160006ERS7_, symObjAddr: 0x2774, symBinAddr: 0x1000066C4, symSize: 0x2C }
  - { offsetInCU: 0x1411B, offset: 0x19F8D, size: 0x8, addend: 0x0, symName: __ZNSt3__16vectorIP10ECObserverNS_9allocatorIS2_EEEC1B7v160006Ev, symObjAddr: 0x27A0, symBinAddr: 0x1000066F0, symSize: 0x2C }
  - { offsetInCU: 0x14143, offset: 0x19FB5, size: 0x8, addend: 0x0, symName: __ZN17ECObserverSubjectD1Ev, symObjAddr: 0x27CC, symBinAddr: 0x10000671C, symSize: 0x2C }
  - { offsetInCU: 0x1416B, offset: 0x19FDD, size: 0x8, addend: 0x0, symName: __ZN17ECObserverSubjectD0Ev, symObjAddr: 0x27F8, symBinAddr: 0x100006748, symSize: 0x58 }
  - { offsetInCU: 0x14193, offset: 0x1A005, size: 0x8, addend: 0x0, symName: __ZNSt3__16vectorIP10ECObserverNS_9allocatorIS2_EEEC2B7v160006Ev, symObjAddr: 0x2850, symBinAddr: 0x1000067A0, symSize: 0x4C }
  - { offsetInCU: 0x141C5, offset: 0x1A037, size: 0x8, addend: 0x0, symName: __ZNSt3__117__compressed_pairIPP10ECObserverNS_9allocatorIS2_EEEC1B7v160006IDnNS_18__default_init_tagEEEOT_OT0_, symObjAddr: 0x289C, symBinAddr: 0x1000067EC, symSize: 0x3C }
  - { offsetInCU: 0x1421B, offset: 0x1A08D, size: 0x8, addend: 0x0, symName: __ZNSt3__117__compressed_pairIPP10ECObserverNS_9allocatorIS2_EEEC2B7v160006IDnNS_18__default_init_tagEEEOT_OT0_, symObjAddr: 0x28E8, symBinAddr: 0x100006838, symSize: 0x40 }
  - { offsetInCU: 0x14271, offset: 0x1A0E3, size: 0x8, addend: 0x0, symName: __ZNSt3__122__compressed_pair_elemIPP10ECObserverLi0ELb0EEC2B7v160006IDnvEEOT_, symObjAddr: 0x2928, symBinAddr: 0x100006878, symSize: 0x1C }
  - { offsetInCU: 0x142B1, offset: 0x1A123, size: 0x8, addend: 0x0, symName: __ZNSt3__122__compressed_pair_elemINS_9allocatorIP10ECObserverEELi1ELb1EEC2B7v160006ENS_18__default_init_tagE, symObjAddr: 0x2944, symBinAddr: 0x100006894, symSize: 0x2C }
  - { offsetInCU: 0x142E3, offset: 0x1A155, size: 0x8, addend: 0x0, symName: __ZNSt3__19allocatorIP10ECObserverEC2B7v160006Ev, symObjAddr: 0x2970, symBinAddr: 0x1000068C0, symSize: 0x2C }
  - { offsetInCU: 0x1430B, offset: 0x1A17D, size: 0x8, addend: 0x0, symName: __ZNSt3__116__non_trivial_ifILb1ENS_9allocatorIP10ECObserverEEEC2B7v160006Ev, symObjAddr: 0x299C, symBinAddr: 0x1000068EC, symSize: 0x14 }
  - { offsetInCU: 0x14333, offset: 0x1A1A5, size: 0x8, addend: 0x0, symName: __ZN16ECTextViewConfigD2Ev, symObjAddr: 0x29B0, symBinAddr: 0x100006900, symSize: 0xA0 }
  - { offsetInCU: 0x1435D, offset: 0x1A1CF, size: 0x8, addend: 0x0, symName: __ZNSt3__16vectorIP10ECObserverNS_9allocatorIS2_EEED1B7v160006Ev, symObjAddr: 0x2A50, symBinAddr: 0x1000069A0, symSize: 0x2C }
  - { offsetInCU: 0x14385, offset: 0x1A1F7, size: 0x8, addend: 0x0, symName: __ZNSt3__16vectorIP10ECObserverNS_9allocatorIS2_EEED2B7v160006Ev, symObjAddr: 0x2A7C, symBinAddr: 0x1000069CC, symSize: 0x3C }
  - { offsetInCU: 0x143AD, offset: 0x1A21F, size: 0x8, addend: 0x0, symName: __ZNSt3__16vectorIP10ECObserverNS_9allocatorIS2_EEE16__destroy_vectorC1ERS5_, symObjAddr: 0x2AB8, symBinAddr: 0x100006A08, symSize: 0x34 }
  - { offsetInCU: 0x143E4, offset: 0x1A256, size: 0x8, addend: 0x0, symName: __ZNSt3__16vectorIP10ECObserverNS_9allocatorIS2_EEE16__destroy_vectorclB7v160006Ev, symObjAddr: 0x2AEC, symBinAddr: 0x100006A3C, symSize: 0x9C }
  - { offsetInCU: 0x14408, offset: 0x1A27A, size: 0x8, addend: 0x0, symName: __ZNSt3__16vectorIP10ECObserverNS_9allocatorIS2_EEE16__destroy_vectorC2ERS5_, symObjAddr: 0x2B88, symBinAddr: 0x100006AD8, symSize: 0x20 }
  - { offsetInCU: 0x1443F, offset: 0x1A2B1, size: 0x8, addend: 0x0, symName: __ZNKSt3__16vectorIP10ECObserverNS_9allocatorIS2_EEE17__annotate_deleteB7v160006Ev, symObjAddr: 0x2BA8, symBinAddr: 0x100006AF8, symSize: 0xB8 }
  - { offsetInCU: 0x14463, offset: 0x1A2D5, size: 0x8, addend: 0x0, symName: __ZNSt3__16vectorIP10ECObserverNS_9allocatorIS2_EEE7__clearB7v160006Ev, symObjAddr: 0x2C70, symBinAddr: 0x100006BC0, symSize: 0x28 }
  - { offsetInCU: 0x14487, offset: 0x1A2F9, size: 0x8, addend: 0x0, symName: __ZNSt3__116allocator_traitsINS_9allocatorIP10ECObserverEEE10deallocateB7v160006ERS4_PS3_m, symObjAddr: 0x2C98, symBinAddr: 0x100006BE8, symSize: 0x34 }
  - { offsetInCU: 0x144C8, offset: 0x1A33A, size: 0x8, addend: 0x0, symName: __ZNSt3__16vectorIP10ECObserverNS_9allocatorIS2_EEE7__allocB7v160006Ev, symObjAddr: 0x2CCC, symBinAddr: 0x100006C1C, symSize: 0x28 }
  - { offsetInCU: 0x144EC, offset: 0x1A35E, size: 0x8, addend: 0x0, symName: __ZNKSt3__16vectorIP10ECObserverNS_9allocatorIS2_EEE8capacityB7v160006Ev, symObjAddr: 0x2CF4, symBinAddr: 0x100006C44, symSize: 0x40 }
  - { offsetInCU: 0x14510, offset: 0x1A382, size: 0x8, addend: 0x0, symName: __ZNKSt3__16vectorIP10ECObserverNS_9allocatorIS2_EEE31__annotate_contiguous_containerB7v160006EPKvS7_S7_S7_, symObjAddr: 0x2D34, symBinAddr: 0x100006C84, symSize: 0x20 }
  - { offsetInCU: 0x14564, offset: 0x1A3D6, size: 0x8, addend: 0x0, symName: __ZNKSt3__16vectorIP10ECObserverNS_9allocatorIS2_EEE4dataB7v160006Ev, symObjAddr: 0x2D54, symBinAddr: 0x100006CA4, symSize: 0x28 }
  - { offsetInCU: 0x14588, offset: 0x1A3FA, size: 0x8, addend: 0x0, symName: __ZNKSt3__16vectorIP10ECObserverNS_9allocatorIS2_EEE4sizeB7v160006Ev, symObjAddr: 0x2D7C, symBinAddr: 0x100006CCC, symSize: 0x28 }
  - { offsetInCU: 0x145AC, offset: 0x1A41E, size: 0x8, addend: 0x0, symName: __ZNSt3__16vectorIP10ECObserverNS_9allocatorIS2_EEE22__base_destruct_at_endB7v160006EPS2_, symObjAddr: 0x2DB8, symBinAddr: 0x100006D08, symSize: 0xA0 }
  - { offsetInCU: 0x145EE, offset: 0x1A460, size: 0x8, addend: 0x0, symName: __ZNSt3__116allocator_traitsINS_9allocatorIP10ECObserverEEE7destroyB7v160006IS3_vEEvRS4_PT_, symObjAddr: 0x2E58, symBinAddr: 0x100006DA8, symSize: 0x2C }
  - { offsetInCU: 0x1462A, offset: 0x1A49C, size: 0x8, addend: 0x0, symName: __ZNSt3__19allocatorIP10ECObserverE7destroyB7v160006EPS2_, symObjAddr: 0x2E84, symBinAddr: 0x100006DD4, symSize: 0x14 }
  - { offsetInCU: 0x1465C, offset: 0x1A4CE, size: 0x8, addend: 0x0, symName: __ZNSt3__19allocatorIP10ECObserverE10deallocateB7v160006EPS2_m, symObjAddr: 0x2E98, symBinAddr: 0x100006DE8, symSize: 0x70 }
  - { offsetInCU: 0x1469C, offset: 0x1A50E, size: 0x8, addend: 0x0, symName: __ZNSt3__117__compressed_pairIPP10ECObserverNS_9allocatorIS2_EEE6secondB7v160006Ev, symObjAddr: 0x2F90, symBinAddr: 0x100006ED4, symSize: 0x24 }
  - { offsetInCU: 0x146C0, offset: 0x1A532, size: 0x8, addend: 0x0, symName: __ZNSt3__122__compressed_pair_elemINS_9allocatorIP10ECObserverEELi1ELb1EE5__getB7v160006Ev, symObjAddr: 0x2FB4, symBinAddr: 0x100006EF8, symSize: 0x14 }
  - { offsetInCU: 0x146E4, offset: 0x1A556, size: 0x8, addend: 0x0, symName: __ZNKSt3__16vectorIP10ECObserverNS_9allocatorIS2_EEE9__end_capB7v160006Ev, symObjAddr: 0x2FC8, symBinAddr: 0x100006F0C, symSize: 0x28 }
  - { offsetInCU: 0x14708, offset: 0x1A57A, size: 0x8, addend: 0x0, symName: __ZNKSt3__117__compressed_pairIPP10ECObserverNS_9allocatorIS2_EEE5firstB7v160006Ev, symObjAddr: 0x2FF0, symBinAddr: 0x100006F34, symSize: 0x24 }
  - { offsetInCU: 0x1472C, offset: 0x1A59E, size: 0x8, addend: 0x0, symName: __ZNKSt3__122__compressed_pair_elemIPP10ECObserverLi0ELb0EE5__getB7v160006Ev, symObjAddr: 0x3014, symBinAddr: 0x100006F58, symSize: 0x14 }
  - { offsetInCU: 0x14750, offset: 0x1A5C2, size: 0x8, addend: 0x0, symName: __ZL9IsRawModev, symObjAddr: 0x3028, symBinAddr: 0x100006F6C, symSize: 0x10 }
  - { offsetInCU: 0x1476E, offset: 0x1A5E0, size: 0x8, addend: 0x0, symName: __ZL9WndAtExitv, symObjAddr: 0x3038, symBinAddr: 0x100006F7C, symSize: 0x40 }
  - { offsetInCU: 0x14788, offset: 0x1A5FA, size: 0x8, addend: 0x0, symName: __ZL10SetRawModeb, symObjAddr: 0x3078, symBinAddr: 0x100006FBC, symSize: 0x28 }
  - { offsetInCU: 0x147B1, offset: 0x1A623, size: 0x8, addend: 0x0, symName: __ZNSt3__16vectorIP10ECObserverNS_9allocatorIS2_EEEixB7v160006Em, symObjAddr: 0x30A0, symBinAddr: 0x100006FE4, symSize: 0x24 }
  - { offsetInCU: 0x147E7, offset: 0x1A659, size: 0x8, addend: 0x0, symName: __ZNKSt3__16vectorINS_12basic_stringIcNS_11char_traitsIcEENS_9allocatorIcEEEENS4_IS6_EEEixB7v160006Em, symObjAddr: 0x30C4, symBinAddr: 0x100007008, symSize: 0x2C }
  - { offsetInCU: 0x1481D, offset: 0x1A68F, size: 0x8, addend: 0x0, symName: __ZNKSt3__16vectorIbNS_9allocatorIbEEEixB7v160006Em, symObjAddr: 0x30F0, symBinAddr: 0x100007034, symSize: 0x3C }
  - { offsetInCU: 0x14850, offset: 0x1A6C2, size: 0x8, addend: 0x0, symName: __ZNKSt3__121__bit_const_referenceINS_6vectorIbNS_9allocatorIbEEEEEcvbB7v160006Ev, symObjAddr: 0x312C, symBinAddr: 0x100007070, symSize: 0x2C }
  - { offsetInCU: 0x14874, offset: 0x1A6E6, size: 0x8, addend: 0x0, symName: __ZNKSt3__16vectorIbNS_9allocatorIbEEE10__make_refB7v160006Em, symObjAddr: 0x3158, symBinAddr: 0x10000709C, symSize: 0x60 }
  - { offsetInCU: 0x148A7, offset: 0x1A719, size: 0x8, addend: 0x0, symName: __ZNSt3__121__bit_const_referenceINS_6vectorIbNS_9allocatorIbEEEEEC1B7v160006EPKmm, symObjAddr: 0x31B8, symBinAddr: 0x1000070FC, symSize: 0x3C }
  - { offsetInCU: 0x148EB, offset: 0x1A75D, size: 0x8, addend: 0x0, symName: __ZNSt3__121__bit_const_referenceINS_6vectorIbNS_9allocatorIbEEEEEC2B7v160006EPKmm, symObjAddr: 0x31F4, symBinAddr: 0x100007138, symSize: 0x2C }
  - { offsetInCU: 0x1492F, offset: 0x1A7A1, size: 0x8, addend: 0x0, symName: __ZNK16ECTextViewConfig12GetWndColNumEv, symObjAddr: 0x3220, symBinAddr: 0x100007164, symSize: 0x18 }
  - { offsetInCU: 0x14953, offset: 0x1A7C5, size: 0x8, addend: 0x0, symName: __ZNKSt3__112basic_stringIcNS_11char_traitsIcEENS_9allocatorIcEEE4dataB7v160006Ev, symObjAddr: 0x3238, symBinAddr: 0x10000717C, symSize: 0x28 }
  - { offsetInCU: 0x14977, offset: 0x1A7E9, size: 0x8, addend: 0x0, symName: __ZNKSt3__112basic_stringIcNS_11char_traitsIcEENS_9allocatorIcEEE13__get_pointerB7v160006Ev, symObjAddr: 0x3274, symBinAddr: 0x1000071B8, symSize: 0x54 }
  - { offsetInCU: 0x1499B, offset: 0x1A80D, size: 0x8, addend: 0x0, symName: __ZNKSt3__112basic_stringIcNS_11char_traitsIcEENS_9allocatorIcEEE18__get_long_pointerB7v160006Ev, symObjAddr: 0x333C, symBinAddr: 0x10000720C, symSize: 0x28 }
  - { offsetInCU: 0x149BF, offset: 0x1A831, size: 0x8, addend: 0x0, symName: __ZNKSt3__112basic_stringIcNS_11char_traitsIcEENS_9allocatorIcEEE19__get_short_pointerB7v160006Ev, symObjAddr: 0x3364, symBinAddr: 0x100007234, symSize: 0x28 }
  - { offsetInCU: 0x149E3, offset: 0x1A855, size: 0x8, addend: 0x0, symName: __ZNSt3__114pointer_traitsIPKcE10pointer_toB7v160006ERS1_, symObjAddr: 0x33C4, symBinAddr: 0x10000725C, symSize: 0x14 }
  - { offsetInCU: 0x14A05, offset: 0x1A877, size: 0x8, addend: 0x0, symName: __ZNSt3__16vectorINS_12basic_stringIcNS_11char_traitsIcEENS_9allocatorIcEEEENS4_IS6_EEEC2B7v160006Ev, symObjAddr: 0x35AC, symBinAddr: 0x100007270, symSize: 0x4C }
  - { offsetInCU: 0x14A2D, offset: 0x1A89F, size: 0x8, addend: 0x0, symName: __ZNSt3__117__compressed_pairIPNS_12basic_stringIcNS_11char_traitsIcEENS_9allocatorIcEEEENS4_IS6_EEEC1B7v160006IDnNS_18__default_init_tagEEEOT_OT0_, symObjAddr: 0x35F8, symBinAddr: 0x1000072BC, symSize: 0x3C }
  - { offsetInCU: 0x14A83, offset: 0x1A8F5, size: 0x8, addend: 0x0, symName: __ZNSt3__117__compressed_pairIPNS_12basic_stringIcNS_11char_traitsIcEENS_9allocatorIcEEEENS4_IS6_EEEC2B7v160006IDnNS_18__default_init_tagEEEOT_OT0_, symObjAddr: 0x3644, symBinAddr: 0x100007308, symSize: 0x40 }
  - { offsetInCU: 0x14AD9, offset: 0x1A94B, size: 0x8, addend: 0x0, symName: __ZNSt3__122__compressed_pair_elemIPNS_12basic_stringIcNS_11char_traitsIcEENS_9allocatorIcEEEELi0ELb0EEC2B7v160006IDnvEEOT_, symObjAddr: 0x3684, symBinAddr: 0x100007348, symSize: 0x1C }
  - { offsetInCU: 0x14B19, offset: 0x1A98B, size: 0x8, addend: 0x0, symName: __ZNSt3__122__compressed_pair_elemINS_9allocatorINS_12basic_stringIcNS_11char_traitsIcEENS1_IcEEEEEELi1ELb1EEC2B7v160006ENS_18__default_init_tagE, symObjAddr: 0x36A0, symBinAddr: 0x100007364, symSize: 0x2C }
  - { offsetInCU: 0x14B4B, offset: 0x1A9BD, size: 0x8, addend: 0x0, symName: __ZNSt3__19allocatorINS_12basic_stringIcNS_11char_traitsIcEENS0_IcEEEEEC2B7v160006Ev, symObjAddr: 0x36CC, symBinAddr: 0x100007390, symSize: 0x2C }
  - { offsetInCU: 0x14B73, offset: 0x1A9E5, size: 0x8, addend: 0x0, symName: __ZNSt3__116__non_trivial_ifILb1ENS_9allocatorINS_12basic_stringIcNS_11char_traitsIcEENS1_IcEEEEEEEC2B7v160006Ev, symObjAddr: 0x36F8, symBinAddr: 0x1000073BC, symSize: 0x14 }
  - { offsetInCU: 0x14B9B, offset: 0x1AA0D, size: 0x8, addend: 0x0, symName: __ZNSt3__16vectorIbNS_9allocatorIbEEEC2B7v160006Ev, symObjAddr: 0x370C, symBinAddr: 0x1000073D0, symSize: 0x44 }
  - { offsetInCU: 0x14BCB, offset: 0x1AA3D, size: 0x8, addend: 0x0, symName: __ZNSt3__117__compressed_pairImNS_9allocatorImEEEC1B7v160006IiNS_18__default_init_tagEEEOT_OT0_, symObjAddr: 0x3750, symBinAddr: 0x100007414, symSize: 0x3C }
  - { offsetInCU: 0x14C21, offset: 0x1AA93, size: 0x8, addend: 0x0, symName: __ZNSt3__117__compressed_pairImNS_9allocatorImEEEC2B7v160006IiNS_18__default_init_tagEEEOT_OT0_, symObjAddr: 0x378C, symBinAddr: 0x100007450, symSize: 0x40 }
  - { offsetInCU: 0x14C77, offset: 0x1AAE9, size: 0x8, addend: 0x0, symName: __ZNSt3__122__compressed_pair_elemImLi0ELb0EEC2B7v160006IivEEOT_, symObjAddr: 0x37CC, symBinAddr: 0x100007490, symSize: 0x24 }
  - { offsetInCU: 0x14CB7, offset: 0x1AB29, size: 0x8, addend: 0x0, symName: __ZNSt3__122__compressed_pair_elemINS_9allocatorImEELi1ELb1EEC2B7v160006ENS_18__default_init_tagE, symObjAddr: 0x37F0, symBinAddr: 0x1000074B4, symSize: 0x2C }
  - { offsetInCU: 0x14CE9, offset: 0x1AB5B, size: 0x8, addend: 0x0, symName: __ZNSt3__19allocatorImEC2B7v160006Ev, symObjAddr: 0x381C, symBinAddr: 0x1000074E0, symSize: 0x2C }
  - { offsetInCU: 0x14D11, offset: 0x1AB83, size: 0x8, addend: 0x0, symName: __ZNSt3__116__non_trivial_ifILb1ENS_9allocatorImEEEC2B7v160006Ev, symObjAddr: 0x3848, symBinAddr: 0x10000750C, symSize: 0x14 }
  - { offsetInCU: 0x14D39, offset: 0x1ABAB, size: 0x8, addend: 0x0, symName: __ZNSt3__16vectorINS_12basic_stringIcNS_11char_traitsIcEENS_9allocatorIcEEEENS4_IS6_EEED2B7v160006Ev, symObjAddr: 0x385C, symBinAddr: 0x100007520, symSize: 0x3C }
  - { offsetInCU: 0x14D61, offset: 0x1ABD3, size: 0x8, addend: 0x0, symName: __ZNSt3__16vectorINS_12basic_stringIcNS_11char_traitsIcEENS_9allocatorIcEEEENS4_IS6_EEE16__destroy_vectorC1ERS8_, symObjAddr: 0x3898, symBinAddr: 0x10000755C, symSize: 0x34 }
  - { offsetInCU: 0x14D98, offset: 0x1AC0A, size: 0x8, addend: 0x0, symName: __ZNSt3__16vectorINS_12basic_stringIcNS_11char_traitsIcEENS_9allocatorIcEEEENS4_IS6_EEE16__destroy_vectorclB7v160006Ev, symObjAddr: 0x38CC, symBinAddr: 0x100007590, symSize: 0x9C }
  - { offsetInCU: 0x14DBC, offset: 0x1AC2E, size: 0x8, addend: 0x0, symName: __ZNSt3__16vectorINS_12basic_stringIcNS_11char_traitsIcEENS_9allocatorIcEEEENS4_IS6_EEE16__destroy_vectorC2ERS8_, symObjAddr: 0x3968, symBinAddr: 0x10000762C, symSize: 0x20 }
  - { offsetInCU: 0x14DF3, offset: 0x1AC65, size: 0x8, addend: 0x0, symName: __ZNKSt3__16vectorINS_12basic_stringIcNS_11char_traitsIcEENS_9allocatorIcEEEENS4_IS6_EEE17__annotate_deleteB7v160006Ev, symObjAddr: 0x3988, symBinAddr: 0x10000764C, symSize: 0xD4 }
  - { offsetInCU: 0x14E17, offset: 0x1AC89, size: 0x8, addend: 0x0, symName: __ZNSt3__16vectorINS_12basic_stringIcNS_11char_traitsIcEENS_9allocatorIcEEEENS4_IS6_EEE7__clearB7v160006Ev, symObjAddr: 0x3A6C, symBinAddr: 0x100007730, symSize: 0x28 }
  - { offsetInCU: 0x14E3B, offset: 0x1ACAD, size: 0x8, addend: 0x0, symName: __ZNSt3__116allocator_traitsINS_9allocatorINS_12basic_stringIcNS_11char_traitsIcEENS1_IcEEEEEEE10deallocateB7v160006ERS7_PS6_m, symObjAddr: 0x3A94, symBinAddr: 0x100007758, symSize: 0x34 }
  - { offsetInCU: 0x14E7C, offset: 0x1ACEE, size: 0x8, addend: 0x0, symName: __ZNSt3__16vectorINS_12basic_stringIcNS_11char_traitsIcEENS_9allocatorIcEEEENS4_IS6_EEE7__allocB7v160006Ev, symObjAddr: 0x3AC8, symBinAddr: 0x10000778C, symSize: 0x28 }
  - { offsetInCU: 0x14EA0, offset: 0x1AD12, size: 0x8, addend: 0x0, symName: __ZNKSt3__16vectorINS_12basic_stringIcNS_11char_traitsIcEENS_9allocatorIcEEEENS4_IS6_EEE8capacityB7v160006Ev, symObjAddr: 0x3AF0, symBinAddr: 0x1000077B4, symSize: 0x40 }
  - { offsetInCU: 0x14EC4, offset: 0x1AD36, size: 0x8, addend: 0x0, symName: __ZNKSt3__16vectorINS_12basic_stringIcNS_11char_traitsIcEENS_9allocatorIcEEEENS4_IS6_EEE31__annotate_contiguous_containerB7v160006EPKvSA_SA_SA_, symObjAddr: 0x3B30, symBinAddr: 0x1000077F4, symSize: 0x20 }
  - { offsetInCU: 0x14F18, offset: 0x1AD8A, size: 0x8, addend: 0x0, symName: __ZNKSt3__16vectorINS_12basic_stringIcNS_11char_traitsIcEENS_9allocatorIcEEEENS4_IS6_EEE4dataB7v160006Ev, symObjAddr: 0x3B50, symBinAddr: 0x100007814, symSize: 0x28 }
  - { offsetInCU: 0x14F3C, offset: 0x1ADAE, size: 0x8, addend: 0x0, symName: __ZNSt3__16vectorINS_12basic_stringIcNS_11char_traitsIcEENS_9allocatorIcEEEENS4_IS6_EEE22__base_destruct_at_endB7v160006EPS6_, symObjAddr: 0x3B8C, symBinAddr: 0x100007850, symSize: 0xA0 }
  - { offsetInCU: 0x14F7E, offset: 0x1ADF0, size: 0x8, addend: 0x0, symName: __ZNSt3__116allocator_traitsINS_9allocatorINS_12basic_stringIcNS_11char_traitsIcEENS1_IcEEEEEEE7destroyB7v160006IS6_vEEvRS7_PT_, symObjAddr: 0x3C2C, symBinAddr: 0x1000078F0, symSize: 0x2C }
  - { offsetInCU: 0x14FBA, offset: 0x1AE2C, size: 0x8, addend: 0x0, symName: __ZNSt3__19allocatorINS_12basic_stringIcNS_11char_traitsIcEENS0_IcEEEEE7destroyB7v160006EPS5_, symObjAddr: 0x3C58, symBinAddr: 0x10000791C, symSize: 0x28 }
  - { offsetInCU: 0x14FEC, offset: 0x1AE5E, size: 0x8, addend: 0x0, symName: __ZNSt3__19allocatorINS_12basic_stringIcNS_11char_traitsIcEENS0_IcEEEEE10deallocateB7v160006EPS5_m, symObjAddr: 0x3C80, symBinAddr: 0x100007944, symSize: 0x74 }
  - { offsetInCU: 0x1502C, offset: 0x1AE9E, size: 0x8, addend: 0x0, symName: __ZNSt3__117__compressed_pairIPNS_12basic_stringIcNS_11char_traitsIcEENS_9allocatorIcEEEENS4_IS6_EEE6secondB7v160006Ev, symObjAddr: 0x3CF4, symBinAddr: 0x1000079B8, symSize: 0x24 }
  - { offsetInCU: 0x15050, offset: 0x1AEC2, size: 0x8, addend: 0x0, symName: __ZNSt3__122__compressed_pair_elemINS_9allocatorINS_12basic_stringIcNS_11char_traitsIcEENS1_IcEEEEEELi1ELb1EE5__getB7v160006Ev, symObjAddr: 0x3D18, symBinAddr: 0x1000079DC, symSize: 0x14 }
  - { offsetInCU: 0x15074, offset: 0x1AEE6, size: 0x8, addend: 0x0, symName: __ZNKSt3__16vectorINS_12basic_stringIcNS_11char_traitsIcEENS_9allocatorIcEEEENS4_IS6_EEE9__end_capB7v160006Ev, symObjAddr: 0x3D2C, symBinAddr: 0x1000079F0, symSize: 0x28 }
  - { offsetInCU: 0x15098, offset: 0x1AF0A, size: 0x8, addend: 0x0, symName: __ZNKSt3__117__compressed_pairIPNS_12basic_stringIcNS_11char_traitsIcEENS_9allocatorIcEEEENS4_IS6_EEE5firstB7v160006Ev, symObjAddr: 0x3D54, symBinAddr: 0x100007A18, symSize: 0x24 }
  - { offsetInCU: 0x150BC, offset: 0x1AF2E, size: 0x8, addend: 0x0, symName: __ZNKSt3__122__compressed_pair_elemIPNS_12basic_stringIcNS_11char_traitsIcEENS_9allocatorIcEEEELi0ELb0EE5__getB7v160006Ev, symObjAddr: 0x3D78, symBinAddr: 0x100007A3C, symSize: 0x14 }
  - { offsetInCU: 0x150E0, offset: 0x1AF52, size: 0x8, addend: 0x0, symName: __ZNSt3__16vectorIbNS_9allocatorIbEEED2B7v160006Ev, symObjAddr: 0x3D8C, symBinAddr: 0x100007A50, symSize: 0x3C }
  - { offsetInCU: 0x15108, offset: 0x1AF7A, size: 0x8, addend: 0x0, symName: __ZNSt3__16vectorIbNS_9allocatorIbEEE16__destroy_vectorC1ERS3_, symObjAddr: 0x3DC8, symBinAddr: 0x100007A8C, symSize: 0x34 }
  - { offsetInCU: 0x1513F, offset: 0x1AFB1, size: 0x8, addend: 0x0, symName: __ZNSt3__16vectorIbNS_9allocatorIbEEE16__destroy_vectorclB7v160006Ev, symObjAddr: 0x3DFC, symBinAddr: 0x100007AC0, symSize: 0x84 }
  - { offsetInCU: 0x15163, offset: 0x1AFD5, size: 0x8, addend: 0x0, symName: __ZNSt3__16vectorIbNS_9allocatorIbEEE16__destroy_vectorC2ERS3_, symObjAddr: 0x3E80, symBinAddr: 0x100007B44, symSize: 0x20 }
  - { offsetInCU: 0x1519A, offset: 0x1B00C, size: 0x8, addend: 0x0, symName: __ZNSt3__116allocator_traitsINS_9allocatorImEEE10deallocateB7v160006ERS2_Pmm, symObjAddr: 0x3EA0, symBinAddr: 0x100007B64, symSize: 0x34 }
  - { offsetInCU: 0x151DB, offset: 0x1B04D, size: 0x8, addend: 0x0, symName: __ZNSt3__16vectorIbNS_9allocatorIbEEE7__allocB7v160006Ev, symObjAddr: 0x3ED4, symBinAddr: 0x100007B98, symSize: 0x28 }
  - { offsetInCU: 0x151FF, offset: 0x1B071, size: 0x8, addend: 0x0, symName: __ZNSt3__16vectorIbNS_9allocatorIbEEE5__capB7v160006Ev, symObjAddr: 0x3EFC, symBinAddr: 0x100007BC0, symSize: 0x28 }
  - { offsetInCU: 0x15223, offset: 0x1B095, size: 0x8, addend: 0x0, symName: __ZNSt3__19allocatorImE10deallocateB7v160006EPmm, symObjAddr: 0x3F34, symBinAddr: 0x100007BF8, symSize: 0x70 }
  - { offsetInCU: 0x15263, offset: 0x1B0D5, size: 0x8, addend: 0x0, symName: __ZNSt3__117__compressed_pairImNS_9allocatorImEEE6secondB7v160006Ev, symObjAddr: 0x3FA4, symBinAddr: 0x100007C68, symSize: 0x24 }
  - { offsetInCU: 0x15287, offset: 0x1B0F9, size: 0x8, addend: 0x0, symName: __ZNSt3__122__compressed_pair_elemINS_9allocatorImEELi1ELb1EE5__getB7v160006Ev, symObjAddr: 0x3FC8, symBinAddr: 0x100007C8C, symSize: 0x14 }
  - { offsetInCU: 0x152AB, offset: 0x1B11D, size: 0x8, addend: 0x0, symName: __ZNSt3__117__compressed_pairImNS_9allocatorImEEE5firstB7v160006Ev, symObjAddr: 0x3FDC, symBinAddr: 0x100007CA0, symSize: 0x24 }
  - { offsetInCU: 0x152CF, offset: 0x1B141, size: 0x8, addend: 0x0, symName: __ZNSt3__122__compressed_pair_elemImLi0ELb0EE5__getB7v160006Ev, symObjAddr: 0x4000, symBinAddr: 0x100007CC4, symSize: 0x14 }
  - { offsetInCU: 0x15311, offset: 0x1B183, size: 0x8, addend: 0x0, symName: __ZNKSt3__113basic_ostreamIcNS_11char_traitsIcEEE6sentrycvbB7v160006Ev, symObjAddr: 0x4208, symBinAddr: 0x100007ECC, symSize: 0x1C }
  - { offsetInCU: 0x15335, offset: 0x1B1A7, size: 0x8, addend: 0x0, symName: __ZNSt3__119ostreambuf_iteratorIcNS_11char_traitsIcEEEC1B7v160006ERNS_13basic_ostreamIcS2_EE, symObjAddr: 0x446C, symBinAddr: 0x100008130, symSize: 0x34 }
  - { offsetInCU: 0x1536B, offset: 0x1B1DD, size: 0x8, addend: 0x0, symName: __ZNKSt3__18ios_base5flagsB7v160006Ev, symObjAddr: 0x44A0, symBinAddr: 0x100008164, symSize: 0x18 }
  - { offsetInCU: 0x15392, offset: 0x1B204, size: 0x8, addend: 0x0, symName: __ZNKSt3__19basic_iosIcNS_11char_traitsIcEEE4fillB7v160006Ev, symObjAddr: 0x44B8, symBinAddr: 0x10000817C, symSize: 0x64 }
  - { offsetInCU: 0x153B9, offset: 0x1B22B, size: 0x8, addend: 0x0, symName: __ZNKSt3__119ostreambuf_iteratorIcNS_11char_traitsIcEEE6failedB7v160006Ev, symObjAddr: 0x451C, symBinAddr: 0x1000081E0, symSize: 0x24 }
  - { offsetInCU: 0x153DD, offset: 0x1B24F, size: 0x8, addend: 0x0, symName: __ZNSt3__19basic_iosIcNS_11char_traitsIcEEE8setstateB7v160006Ej, symObjAddr: 0x4540, symBinAddr: 0x100008204, symSize: 0x2C }
  - { offsetInCU: 0x15410, offset: 0x1B282, size: 0x8, addend: 0x0, symName: __ZNKSt3__18ios_base5widthB7v160006Ev, symObjAddr: 0x456C, symBinAddr: 0x100008230, symSize: 0x18 }
  - { offsetInCU: 0x15437, offset: 0x1B2A9, size: 0x8, addend: 0x0, symName: __ZNSt3__115basic_streambufIcNS_11char_traitsIcEEE5sputnB7v160006EPKcl, symObjAddr: 0x4584, symBinAddr: 0x100008248, symSize: 0x3C }
  - { offsetInCU: 0x15477, offset: 0x1B2E9, size: 0x8, addend: 0x0, symName: __ZNSt3__112basic_stringIcNS_11char_traitsIcEENS_9allocatorIcEEEC1B7v160006Emc, symObjAddr: 0x45C0, symBinAddr: 0x100008284, symSize: 0x3C }
  - { offsetInCU: 0x154BD, offset: 0x1B32F, size: 0x8, addend: 0x0, symName: __ZNSt3__18ios_base5widthB7v160006El, symObjAddr: 0x45FC, symBinAddr: 0x1000082C0, symSize: 0x2C }
  - { offsetInCU: 0x15502, offset: 0x1B374, size: 0x8, addend: 0x0, symName: __ZNSt3__112basic_stringIcNS_11char_traitsIcEENS_9allocatorIcEEEC2B7v160006Emc, symObjAddr: 0x4628, symBinAddr: 0x1000082EC, symSize: 0x54 }
  - { offsetInCU: 0x15548, offset: 0x1B3BA, size: 0x8, addend: 0x0, symName: __ZNSt3__119ostreambuf_iteratorIcNS_11char_traitsIcEEEC2B7v160006ERNS_13basic_ostreamIcS2_EE, symObjAddr: 0x467C, symBinAddr: 0x100008340, symSize: 0x68 }
  - { offsetInCU: 0x1557E, offset: 0x1B3F0, size: 0x8, addend: 0x0, symName: __ZNKSt3__19basic_iosIcNS_11char_traitsIcEEE5rdbufB7v160006Ev, symObjAddr: 0x46E4, symBinAddr: 0x1000083A8, symSize: 0x24 }
  - { offsetInCU: 0x155A5, offset: 0x1B417, size: 0x8, addend: 0x0, symName: __ZNKSt3__18ios_base5rdbufB7v160006Ev, symObjAddr: 0x4708, symBinAddr: 0x1000083CC, symSize: 0x18 }
  - { offsetInCU: 0x155C9, offset: 0x1B43B, size: 0x8, addend: 0x0, symName: __ZNSt3__111char_traitsIcE11eq_int_typeEii, symObjAddr: 0x4720, symBinAddr: 0x1000083E4, symSize: 0x28 }
  - { offsetInCU: 0x155F9, offset: 0x1B46B, size: 0x8, addend: 0x0, symName: __ZNSt3__111char_traitsIcE3eofEv, symObjAddr: 0x4748, symBinAddr: 0x10000840C, symSize: 0x8 }
  - { offsetInCU: 0x1560D, offset: 0x1B47F, size: 0x8, addend: 0x0, symName: __ZNKSt3__19basic_iosIcNS_11char_traitsIcEEE5widenB7v160006Ec, symObjAddr: 0x4750, symBinAddr: 0x100008414, symSize: 0x8C }
  - { offsetInCU: 0x1567A, offset: 0x1B4EC, size: 0x8, addend: 0x0, symName: __ZNKSt3__15ctypeIcE5widenB7v160006Ec, symObjAddr: 0x4808, symBinAddr: 0x1000084CC, symSize: 0x38 }
  - { offsetInCU: 0x156AD, offset: 0x1B51F, size: 0x8, addend: 0x0, symName: __ZNSt3__18ios_base8setstateB7v160006Ej, symObjAddr: 0x4840, symBinAddr: 0x100008504, symSize: 0x34 }
  - { offsetInCU: 0x156E3, offset: 0x1B555, size: 0x8, addend: 0x0, symName: __ZNSt3__16vectorINS_12basic_stringIcNS_11char_traitsIcEENS_9allocatorIcEEEENS4_IS6_EEE9__end_capB7v160006Ev, symObjAddr: 0x4874, symBinAddr: 0x100008538, symSize: 0x28 }
  - { offsetInCU: 0x15707, offset: 0x1B579, size: 0x8, addend: 0x0, symName: __ZNSt3__16vectorINS_12basic_stringIcNS_11char_traitsIcEENS_9allocatorIcEEEENS4_IS6_EEE22__construct_one_at_endB7v160006IJRKS6_EEEvDpOT_, symObjAddr: 0x489C, symBinAddr: 0x100008560, symSize: 0x98 }
  - { offsetInCU: 0x15754, offset: 0x1B5C6, size: 0x8, addend: 0x0, symName: __ZNSt3__16vectorINS_12basic_stringIcNS_11char_traitsIcEENS_9allocatorIcEEEENS4_IS6_EEE21__push_back_slow_pathIRKS6_EEvOT_, symObjAddr: 0x4934, symBinAddr: 0x1000085F8, symSize: 0xE0 }
  - { offsetInCU: 0x157B1, offset: 0x1B623, size: 0x8, addend: 0x0, symName: __ZNSt3__117__compressed_pairIPNS_12basic_stringIcNS_11char_traitsIcEENS_9allocatorIcEEEENS4_IS6_EEE5firstB7v160006Ev, symObjAddr: 0x4A14, symBinAddr: 0x1000086D8, symSize: 0x24 }
  - { offsetInCU: 0x157D5, offset: 0x1B647, size: 0x8, addend: 0x0, symName: __ZNSt3__122__compressed_pair_elemIPNS_12basic_stringIcNS_11char_traitsIcEENS_9allocatorIcEEEELi0ELb0EE5__getB7v160006Ev, symObjAddr: 0x4A38, symBinAddr: 0x1000086FC, symSize: 0x14 }
  - { offsetInCU: 0x15812, offset: 0x1B684, size: 0x8, addend: 0x0, symName: __ZNSt3__16vectorINS_12basic_stringIcNS_11char_traitsIcEENS_9allocatorIcEEEENS4_IS6_EEE21_ConstructTransactionC1B7v160006ERS8_m, symObjAddr: 0x4A4C, symBinAddr: 0x100008710, symSize: 0x3C }
  - { offsetInCU: 0x15858, offset: 0x1B6CA, size: 0x8, addend: 0x0, symName: __ZNSt3__116allocator_traitsINS_9allocatorINS_12basic_stringIcNS_11char_traitsIcEENS1_IcEEEEEEE9constructB7v160006IS6_JRKS6_EvEEvRS7_PT_DpOT0_, symObjAddr: 0x4A88, symBinAddr: 0x10000874C, symSize: 0x34 }
  - { offsetInCU: 0x158AE, offset: 0x1B720, size: 0x8, addend: 0x0, symName: __ZNSt3__16vectorINS_12basic_stringIcNS_11char_traitsIcEENS_9allocatorIcEEEENS4_IS6_EEE21_ConstructTransactionD1B7v160006Ev, symObjAddr: 0x4ABC, symBinAddr: 0x100008780, symSize: 0x2C }
  - { offsetInCU: 0x158D6, offset: 0x1B748, size: 0x8, addend: 0x0, symName: __ZNSt3__16vectorINS_12basic_stringIcNS_11char_traitsIcEENS_9allocatorIcEEEENS4_IS6_EEE21_ConstructTransactionC2B7v160006ERS8_m, symObjAddr: 0x4AE8, symBinAddr: 0x1000087AC, symSize: 0x4C }
  - { offsetInCU: 0x1591C, offset: 0x1B78E, size: 0x8, addend: 0x0, symName: __ZNSt3__19allocatorINS_12basic_stringIcNS_11char_traitsIcEENS0_IcEEEEE9constructB7v160006IS5_JRKS5_EEEvPT_DpOT0_, symObjAddr: 0x4B34, symBinAddr: 0x1000087F8, symSize: 0x30 }
  - { offsetInCU: 0x15970, offset: 0x1B7E2, size: 0x8, addend: 0x0, symName: __ZNSt3__16vectorINS_12basic_stringIcNS_11char_traitsIcEENS_9allocatorIcEEEENS4_IS6_EEE21_ConstructTransactionD2B7v160006Ev, symObjAddr: 0x4B64, symBinAddr: 0x100008828, symSize: 0x20 }
  - { offsetInCU: 0x15998, offset: 0x1B80A, size: 0x8, addend: 0x0, symName: __ZNKSt3__16vectorINS_12basic_stringIcNS_11char_traitsIcEENS_9allocatorIcEEEENS4_IS6_EEE11__recommendB7v160006Em, symObjAddr: 0x4B84, symBinAddr: 0x100008848, symSize: 0xB4 }
  - { offsetInCU: 0x159EC, offset: 0x1B85E, size: 0x8, addend: 0x0, symName: __ZNSt3__114__split_bufferINS_12basic_stringIcNS_11char_traitsIcEENS_9allocatorIcEEEERNS4_IS6_EEEC1EmmS8_, symObjAddr: 0x4C38, symBinAddr: 0x1000088FC, symSize: 0x44 }
  - { offsetInCU: 0x15A41, offset: 0x1B8B3, size: 0x8, addend: 0x0, symName: __ZNSt3__114__split_bufferINS_12basic_stringIcNS_11char_traitsIcEENS_9allocatorIcEEEERNS4_IS6_EEED1Ev, symObjAddr: 0x4D94, symBinAddr: 0x100008A58, symSize: 0x2C }
  - { offsetInCU: 0x15A6C, offset: 0x1B8DE, size: 0x8, addend: 0x0, symName: __ZNKSt3__16vectorINS_12basic_stringIcNS_11char_traitsIcEENS_9allocatorIcEEEENS4_IS6_EEE8max_sizeEv, symObjAddr: 0x4DC0, symBinAddr: 0x100008A84, symSize: 0x74 }
  - { offsetInCU: 0x15A93, offset: 0x1B905, size: 0x8, addend: 0x0, symName: __ZNKSt3__16vectorINS_12basic_stringIcNS_11char_traitsIcEENS_9allocatorIcEEEENS4_IS6_EEE20__throw_length_errorB7v160006Ev, symObjAddr: 0x4E34, symBinAddr: 0x100008AF8, symSize: 0x1C }
  - { offsetInCU: 0x15AC1, offset: 0x1B933, size: 0x8, addend: 0x0, symName: __ZNSt3__116allocator_traitsINS_9allocatorINS_12basic_stringIcNS_11char_traitsIcEENS1_IcEEEEEEE8max_sizeB7v160006IS7_vEEmRKS7_, symObjAddr: 0x4EA8, symBinAddr: 0x100008B6C, symSize: 0x24 }
  - { offsetInCU: 0x15AEE, offset: 0x1B960, size: 0x8, addend: 0x0, symName: __ZNKSt3__16vectorINS_12basic_stringIcNS_11char_traitsIcEENS_9allocatorIcEEEENS4_IS6_EEE7__allocB7v160006Ev, symObjAddr: 0x4ECC, symBinAddr: 0x100008B90, symSize: 0x28 }
  - { offsetInCU: 0x15B12, offset: 0x1B984, size: 0x8, addend: 0x0, symName: __ZNSt3__114numeric_limitsIlE3maxB7v160006Ev, symObjAddr: 0x4EF4, symBinAddr: 0x100008BB8, symSize: 0x14 }
  - { offsetInCU: 0x15B30, offset: 0x1B9A2, size: 0x8, addend: 0x0, symName: __ZNKSt3__16__lessImmEclB7v160006ERKmS3_, symObjAddr: 0x4F5C, symBinAddr: 0x100008C20, symSize: 0x34 }
  - { offsetInCU: 0x15B70, offset: 0x1B9E2, size: 0x8, addend: 0x0, symName: __ZNKSt3__19allocatorINS_12basic_stringIcNS_11char_traitsIcEENS0_IcEEEEE8max_sizeB7v160006Ev, symObjAddr: 0x4F90, symBinAddr: 0x100008C54, symSize: 0x18 }
  - { offsetInCU: 0x15B94, offset: 0x1BA06, size: 0x8, addend: 0x0, symName: __ZNKSt3__117__compressed_pairIPNS_12basic_stringIcNS_11char_traitsIcEENS_9allocatorIcEEEENS4_IS6_EEE6secondB7v160006Ev, symObjAddr: 0x4FA8, symBinAddr: 0x100008C6C, symSize: 0x24 }
  - { offsetInCU: 0x15BB8, offset: 0x1BA2A, size: 0x8, addend: 0x0, symName: __ZNKSt3__122__compressed_pair_elemINS_9allocatorINS_12basic_stringIcNS_11char_traitsIcEENS1_IcEEEEEELi1ELb1EE5__getB7v160006Ev, symObjAddr: 0x4FCC, symBinAddr: 0x100008C90, symSize: 0x14 }
  - { offsetInCU: 0x15BDC, offset: 0x1BA4E, size: 0x8, addend: 0x0, symName: __ZNSt3__123__libcpp_numeric_limitsIlLb1EE3maxB7v160006Ev, symObjAddr: 0x4FE0, symBinAddr: 0x100008CA4, symSize: 0x8 }
  - { offsetInCU: 0x15BF0, offset: 0x1BA62, size: 0x8, addend: 0x0, symName: __ZNSt12length_errorC1B7v160006EPKc, symObjAddr: 0x504C, symBinAddr: 0x100008D10, symSize: 0x34 }
  - { offsetInCU: 0x15C26, offset: 0x1BA98, size: 0x8, addend: 0x0, symName: __ZNSt12length_errorC2B7v160006EPKc, symObjAddr: 0x5080, symBinAddr: 0x100008D44, symSize: 0x4C }
  - { offsetInCU: 0x15C5C, offset: 0x1BACE, size: 0x8, addend: 0x0, symName: __ZNSt3__114__split_bufferINS_12basic_stringIcNS_11char_traitsIcEENS_9allocatorIcEEEERNS4_IS6_EEEC2EmmS8_, symObjAddr: 0x5120, symBinAddr: 0x100008DE4, symSize: 0xE0 }
  - { offsetInCU: 0x15CCE, offset: 0x1BB40, size: 0x8, addend: 0x0, symName: __ZNSt3__117__compressed_pairIPNS_12basic_stringIcNS_11char_traitsIcEENS_9allocatorIcEEEERNS4_IS6_EEEC1B7v160006IDnS9_EEOT_OT0_, symObjAddr: 0x5200, symBinAddr: 0x100008EC4, symSize: 0x3C }
  - { offsetInCU: 0x15D24, offset: 0x1BB96, size: 0x8, addend: 0x0, symName: __ZNSt3__114__split_bufferINS_12basic_stringIcNS_11char_traitsIcEENS_9allocatorIcEEEERNS4_IS6_EEE7__allocB7v160006Ev, symObjAddr: 0x527C, symBinAddr: 0x100008F40, symSize: 0x28 }
  - { offsetInCU: 0x15D48, offset: 0x1BBBA, size: 0x8, addend: 0x0, symName: __ZNSt3__114__split_bufferINS_12basic_stringIcNS_11char_traitsIcEENS_9allocatorIcEEEERNS4_IS6_EEE9__end_capB7v160006Ev, symObjAddr: 0x52A4, symBinAddr: 0x100008F68, symSize: 0x28 }
  - { offsetInCU: 0x15D6C, offset: 0x1BBDE, size: 0x8, addend: 0x0, symName: __ZNSt3__117__compressed_pairIPNS_12basic_stringIcNS_11char_traitsIcEENS_9allocatorIcEEEERNS4_IS6_EEEC2B7v160006IDnS9_EEOT_OT0_, symObjAddr: 0x52CC, symBinAddr: 0x100008F90, symSize: 0x48 }
  - { offsetInCU: 0x15DC2, offset: 0x1BC34, size: 0x8, addend: 0x0, symName: __ZNSt3__122__compressed_pair_elemIRNS_9allocatorINS_12basic_stringIcNS_11char_traitsIcEENS1_IcEEEEEELi1ELb0EEC2B7v160006IS8_vEEOT_, symObjAddr: 0x5314, symBinAddr: 0x100008FD8, symSize: 0x20 }
  - { offsetInCU: 0x15E02, offset: 0x1BC74, size: 0x8, addend: 0x0, symName: __ZNSt3__19allocatorINS_12basic_stringIcNS_11char_traitsIcEENS0_IcEEEEE8allocateB7v160006Em, symObjAddr: 0x5334, symBinAddr: 0x100008FF8, symSize: 0x8C }
  - { offsetInCU: 0x15E34, offset: 0x1BCA6, size: 0x8, addend: 0x0, symName: __ZNSt3__117__compressed_pairIPNS_12basic_stringIcNS_11char_traitsIcEENS_9allocatorIcEEEERNS4_IS6_EEE6secondB7v160006Ev, symObjAddr: 0x5440, symBinAddr: 0x100009084, symSize: 0x28 }
  - { offsetInCU: 0x15E58, offset: 0x1BCCA, size: 0x8, addend: 0x0, symName: __ZNSt3__122__compressed_pair_elemIRNS_9allocatorINS_12basic_stringIcNS_11char_traitsIcEENS1_IcEEEEEELi1ELb0EE5__getB7v160006Ev, symObjAddr: 0x5468, symBinAddr: 0x1000090AC, symSize: 0x18 }
  - { offsetInCU: 0x15E7C, offset: 0x1BCEE, size: 0x8, addend: 0x0, symName: __ZNSt3__117__compressed_pairIPNS_12basic_stringIcNS_11char_traitsIcEENS_9allocatorIcEEEERNS4_IS6_EEE5firstB7v160006Ev, symObjAddr: 0x5480, symBinAddr: 0x1000090C4, symSize: 0x24 }
  - { offsetInCU: 0x15EA0, offset: 0x1BD12, size: 0x8, addend: 0x0, symName: __ZNSt3__116reverse_iteratorIPNS_12basic_stringIcNS_11char_traitsIcEENS_9allocatorIcEEEEEC1B7v160006ES7_, symObjAddr: 0x55D8, symBinAddr: 0x10000921C, symSize: 0x34 }
  - { offsetInCU: 0x15ED6, offset: 0x1BD48, size: 0x8, addend: 0x0, symName: __ZNKSt3__116reverse_iteratorIPNS_12basic_stringIcNS_11char_traitsIcEENS_9allocatorIcEEEEE4baseB7v160006Ev, symObjAddr: 0x560C, symBinAddr: 0x100009250, symSize: 0x18 }
  - { offsetInCU: 0x15EFA, offset: 0x1BD6C, size: 0x8, addend: 0x0, symName: __ZNKSt3__16vectorINS_12basic_stringIcNS_11char_traitsIcEENS_9allocatorIcEEEENS4_IS6_EEE14__annotate_newB7v160006Em, symObjAddr: 0x5660, symBinAddr: 0x1000092A4, symSize: 0xC8 }
  - { offsetInCU: 0x15F2D, offset: 0x1BD9F, size: 0x8, addend: 0x0, symName: __ZNSt3__129_AllocatorDestroyRangeReverseINS_9allocatorINS_12basic_stringIcNS_11char_traitsIcEENS1_IcEEEEEENS_16reverse_iteratorIPS6_EEEC1B7v160006ERS7_RSA_SD_, symObjAddr: 0x5784, symBinAddr: 0x1000093C8, symSize: 0x44 }
  - { offsetInCU: 0x15F82, offset: 0x1BDF4, size: 0x8, addend: 0x0, symName: __ZNKSt3__116reverse_iteratorIPNS_12basic_stringIcNS_11char_traitsIcEENS_9allocatorIcEEEEEdeB7v160006Ev, symObjAddr: 0x5834, symBinAddr: 0x100009478, symSize: 0x28 }
  - { offsetInCU: 0x15FB4, offset: 0x1BE26, size: 0x8, addend: 0x0, symName: __ZNSt3__116reverse_iteratorIPNS_12basic_stringIcNS_11char_traitsIcEENS_9allocatorIcEEEEEppB7v160006Ev, symObjAddr: 0x585C, symBinAddr: 0x1000094A0, symSize: 0x20 }
  - { offsetInCU: 0x15FD8, offset: 0x1BE4A, size: 0x8, addend: 0x0, symName: __ZNSt3__128__exception_guard_exceptionsINS_29_AllocatorDestroyRangeReverseINS_9allocatorINS_12basic_stringIcNS_11char_traitsIcEENS2_IcEEEEEENS_16reverse_iteratorIPS7_EEEEE10__completeB7v160006Ev, symObjAddr: 0x587C, symBinAddr: 0x1000094C0, symSize: 0x1C }
  - { offsetInCU: 0x15FFC, offset: 0x1BE6E, size: 0x8, addend: 0x0, symName: __ZNSt3__128__exception_guard_exceptionsINS_29_AllocatorDestroyRangeReverseINS_9allocatorINS_12basic_stringIcNS_11char_traitsIcEENS2_IcEEEEEENS_16reverse_iteratorIPS7_EEEEED1B7v160006Ev, symObjAddr: 0x5898, symBinAddr: 0x1000094DC, symSize: 0x2C }
  - { offsetInCU: 0x16024, offset: 0x1BE96, size: 0x8, addend: 0x0, symName: __ZNSt3__128__exception_guard_exceptionsINS_29_AllocatorDestroyRangeReverseINS_9allocatorINS_12basic_stringIcNS_11char_traitsIcEENS2_IcEEEEEENS_16reverse_iteratorIPS7_EEEEEC1B7v160006ESC_, symObjAddr: 0x58C4, symBinAddr: 0x100009508, symSize: 0x34 }
  - { offsetInCU: 0x1605B, offset: 0x1BECD, size: 0x8, addend: 0x0, symName: __ZNSt3__128__exception_guard_exceptionsINS_29_AllocatorDestroyRangeReverseINS_9allocatorINS_12basic_stringIcNS_11char_traitsIcEENS2_IcEEEEEENS_16reverse_iteratorIPS7_EEEEEC2B7v160006ESC_, symObjAddr: 0x58F8, symBinAddr: 0x10000953C, symSize: 0x30 }
  - { offsetInCU: 0x16092, offset: 0x1BF04, size: 0x8, addend: 0x0, symName: __ZNSt3__129_AllocatorDestroyRangeReverseINS_9allocatorINS_12basic_stringIcNS_11char_traitsIcEENS1_IcEEEEEENS_16reverse_iteratorIPS6_EEEC2B7v160006ERS7_RSA_SD_, symObjAddr: 0x5928, symBinAddr: 0x10000956C, symSize: 0x38 }
  - { offsetInCU: 0x160EC, offset: 0x1BF5E, size: 0x8, addend: 0x0, symName: __ZNSt3__119__to_address_helperINS_16reverse_iteratorIPNS_12basic_stringIcNS_11char_traitsIcEENS_9allocatorIcEEEEEEvE6__callB7v160006ERKS9_, symObjAddr: 0x5960, symBinAddr: 0x1000095A4, symSize: 0x4C }
  - { offsetInCU: 0x1610E, offset: 0x1BF80, size: 0x8, addend: 0x0, symName: __ZNKSt3__116reverse_iteratorIPNS_12basic_stringIcNS_11char_traitsIcEENS_9allocatorIcEEEEEptB7v160006Ev, symObjAddr: 0x59AC, symBinAddr: 0x1000095F0, symSize: 0x24 }
  - { offsetInCU: 0x16132, offset: 0x1BFA4, size: 0x8, addend: 0x0, symName: __ZNSt3__128__exception_guard_exceptionsINS_29_AllocatorDestroyRangeReverseINS_9allocatorINS_12basic_stringIcNS_11char_traitsIcEENS2_IcEEEEEENS_16reverse_iteratorIPS7_EEEEED2B7v160006Ev, symObjAddr: 0x59D0, symBinAddr: 0x100009614, symSize: 0x48 }
  - { offsetInCU: 0x1615A, offset: 0x1BFCC, size: 0x8, addend: 0x0, symName: __ZNKSt3__129_AllocatorDestroyRangeReverseINS_9allocatorINS_12basic_stringIcNS_11char_traitsIcEENS1_IcEEEEEENS_16reverse_iteratorIPS6_EEEclB7v160006Ev, symObjAddr: 0x5A18, symBinAddr: 0x10000965C, symSize: 0xB4 }
  - { offsetInCU: 0x1617F, offset: 0x1BFF1, size: 0x8, addend: 0x0, symName: __ZNSt3__116reverse_iteratorINS0_IPNS_12basic_stringIcNS_11char_traitsIcEENS_9allocatorIcEEEEEEEC1B7v160006ES8_, symObjAddr: 0x5B3C, symBinAddr: 0x100009780, symSize: 0x3C }
  - { offsetInCU: 0x161B5, offset: 0x1C027, size: 0x8, addend: 0x0, symName: __ZNSt3__116reverse_iteratorINS0_IPNS_12basic_stringIcNS_11char_traitsIcEENS_9allocatorIcEEEEEEEppB7v160006Ev, symObjAddr: 0x5BFC, symBinAddr: 0x100009840, symSize: 0x30 }
  - { offsetInCU: 0x161D9, offset: 0x1C04B, size: 0x8, addend: 0x0, symName: __ZNKSt3__116reverse_iteratorINS0_IPNS_12basic_stringIcNS_11char_traitsIcEENS_9allocatorIcEEEEEEE4baseB7v160006Ev, symObjAddr: 0x5C2C, symBinAddr: 0x100009870, symSize: 0x24 }
  - { offsetInCU: 0x16202, offset: 0x1C074, size: 0x8, addend: 0x0, symName: __ZNSt3__119__to_address_helperINS_16reverse_iteratorINS1_IPNS_12basic_stringIcNS_11char_traitsIcEENS_9allocatorIcEEEEEEEEvE6__callB7v160006ERKSA_, symObjAddr: 0x5C50, symBinAddr: 0x100009894, symSize: 0x4C }
  - { offsetInCU: 0x16224, offset: 0x1C096, size: 0x8, addend: 0x0, symName: __ZNKSt3__116reverse_iteratorINS0_IPNS_12basic_stringIcNS_11char_traitsIcEENS_9allocatorIcEEEEEEEptB7v160006Ev, symObjAddr: 0x5C9C, symBinAddr: 0x1000098E0, symSize: 0x24 }
  - { offsetInCU: 0x16248, offset: 0x1C0BA, size: 0x8, addend: 0x0, symName: __ZNKSt3__116reverse_iteratorINS0_IPNS_12basic_stringIcNS_11char_traitsIcEENS_9allocatorIcEEEEEEEdeB7v160006Ev, symObjAddr: 0x5CC0, symBinAddr: 0x100009904, symSize: 0x34 }
  - { offsetInCU: 0x1627A, offset: 0x1C0EC, size: 0x8, addend: 0x0, symName: __ZNSt3__116reverse_iteratorIPNS_12basic_stringIcNS_11char_traitsIcEENS_9allocatorIcEEEEEmmB7v160006Ev, symObjAddr: 0x5CF4, symBinAddr: 0x100009938, symSize: 0x20 }
  - { offsetInCU: 0x1629E, offset: 0x1C110, size: 0x8, addend: 0x0, symName: __ZNSt3__116reverse_iteratorINS0_IPNS_12basic_stringIcNS_11char_traitsIcEENS_9allocatorIcEEEEEEEC2B7v160006ES8_, symObjAddr: 0x5D14, symBinAddr: 0x100009958, symSize: 0x2C }
  - { offsetInCU: 0x162D4, offset: 0x1C146, size: 0x8, addend: 0x0, symName: __ZNSt3__116reverse_iteratorIPNS_12basic_stringIcNS_11char_traitsIcEENS_9allocatorIcEEEEEC2B7v160006ES7_, symObjAddr: 0x5D40, symBinAddr: 0x100009984, symSize: 0x28 }
  - { offsetInCU: 0x1630A, offset: 0x1C17C, size: 0x8, addend: 0x0, symName: __ZNSt3__114__split_bufferINS_12basic_stringIcNS_11char_traitsIcEENS_9allocatorIcEEEERNS4_IS6_EEED2Ev, symObjAddr: 0x5D68, symBinAddr: 0x1000099AC, symSize: 0x80 }
  - { offsetInCU: 0x16335, offset: 0x1C1A7, size: 0x8, addend: 0x0, symName: __ZNSt3__114__split_bufferINS_12basic_stringIcNS_11char_traitsIcEENS_9allocatorIcEEEERNS4_IS6_EEE5clearB7v160006Ev, symObjAddr: 0x5DE8, symBinAddr: 0x100009A2C, symSize: 0x28 }
  - { offsetInCU: 0x16359, offset: 0x1C1CB, size: 0x8, addend: 0x0, symName: __ZNKSt3__114__split_bufferINS_12basic_stringIcNS_11char_traitsIcEENS_9allocatorIcEEEERNS4_IS6_EEE8capacityB7v160006Ev, symObjAddr: 0x5E10, symBinAddr: 0x100009A54, symSize: 0x40 }
  - { offsetInCU: 0x1637D, offset: 0x1C1EF, size: 0x8, addend: 0x0, symName: __ZNSt3__114__split_bufferINS_12basic_stringIcNS_11char_traitsIcEENS_9allocatorIcEEEERNS4_IS6_EEE17__destruct_at_endB7v160006EPS6_, symObjAddr: 0x5E50, symBinAddr: 0x100009A94, symSize: 0x2C }
  - { offsetInCU: 0x163AF, offset: 0x1C221, size: 0x8, addend: 0x0, symName: __ZNSt3__114__split_bufferINS_12basic_stringIcNS_11char_traitsIcEENS_9allocatorIcEEEERNS4_IS6_EEE17__destruct_at_endB7v160006EPS6_NS_17integral_constantIbLb0EEE, symObjAddr: 0x5E7C, symBinAddr: 0x100009AC0, symSize: 0x94 }
  - { offsetInCU: 0x163EE, offset: 0x1C260, size: 0x8, addend: 0x0, symName: __ZNKSt3__114__split_bufferINS_12basic_stringIcNS_11char_traitsIcEENS_9allocatorIcEEEERNS4_IS6_EEE9__end_capB7v160006Ev, symObjAddr: 0x5F10, symBinAddr: 0x100009B54, symSize: 0x28 }
  - { offsetInCU: 0x16412, offset: 0x1C284, size: 0x8, addend: 0x0, symName: __ZNKSt3__117__compressed_pairIPNS_12basic_stringIcNS_11char_traitsIcEENS_9allocatorIcEEEERNS4_IS6_EEE5firstB7v160006Ev, symObjAddr: 0x5F38, symBinAddr: 0x100009B7C, symSize: 0x24 }
  - { offsetInCU: 0x16436, offset: 0x1C2A8, size: 0x8, addend: 0x0, symName: __ZNKSt3__16vectorIbNS_9allocatorIbEEE8capacityB7v160006Ev, symObjAddr: 0x5F5C, symBinAddr: 0x100009BA0, symSize: 0x2C }
  - { offsetInCU: 0x1645A, offset: 0x1C2CC, size: 0x8, addend: 0x0, symName: __ZNSt3__16vectorIbNS_9allocatorIbEEE7reserveEm, symObjAddr: 0x5F88, symBinAddr: 0x100009BCC, symSize: 0x120 }
  - { offsetInCU: 0x164A6, offset: 0x1C318, size: 0x8, addend: 0x0, symName: __ZNKSt3__16vectorIbNS_9allocatorIbEEE11__recommendB7v160006Em, symObjAddr: 0x60A8, symBinAddr: 0x100009CEC, symSize: 0xCC }
  - { offsetInCU: 0x164FA, offset: 0x1C36C, size: 0x8, addend: 0x0, symName: __ZNSt3__16vectorIbNS_9allocatorIbEEE4backB7v160006Ev, symObjAddr: 0x6174, symBinAddr: 0x100009DB8, symSize: 0x3C }
  - { offsetInCU: 0x1651E, offset: 0x1C390, size: 0x8, addend: 0x0, symName: __ZNSt3__115__bit_referenceINS_6vectorIbNS_9allocatorIbEEEELb1EEaSB7v160006Eb, symObjAddr: 0x61B0, symBinAddr: 0x100009DF4, symSize: 0x6C }
  - { offsetInCU: 0x16550, offset: 0x1C3C2, size: 0x8, addend: 0x0, symName: __ZNSt3__16vectorIbNS_9allocatorIbEEE26__internal_cap_to_externalB7v160006Em, symObjAddr: 0x621C, symBinAddr: 0x100009E60, symSize: 0x18 }
  - { offsetInCU: 0x16573, offset: 0x1C3E5, size: 0x8, addend: 0x0, symName: __ZNKSt3__16vectorIbNS_9allocatorIbEEE5__capB7v160006Ev, symObjAddr: 0x6234, symBinAddr: 0x100009E78, symSize: 0x28 }
  - { offsetInCU: 0x16597, offset: 0x1C409, size: 0x8, addend: 0x0, symName: __ZNKSt3__117__compressed_pairImNS_9allocatorImEEE5firstB7v160006Ev, symObjAddr: 0x625C, symBinAddr: 0x100009EA0, symSize: 0x24 }
  - { offsetInCU: 0x165BB, offset: 0x1C42D, size: 0x8, addend: 0x0, symName: __ZNKSt3__122__compressed_pair_elemImLi0ELb0EE5__getB7v160006Ev, symObjAddr: 0x6280, symBinAddr: 0x100009EC4, symSize: 0x14 }
  - { offsetInCU: 0x165DF, offset: 0x1C451, size: 0x8, addend: 0x0, symName: __ZNKSt3__16vectorIbNS_9allocatorIbEEE8max_sizeEv, symObjAddr: 0x6294, symBinAddr: 0x100009ED8, symSize: 0x7C }
  - { offsetInCU: 0x16624, offset: 0x1C496, size: 0x8, addend: 0x0, symName: __ZNKSt3__16vectorIbNS_9allocatorIbEEE20__throw_length_errorB7v160006Ev, symObjAddr: 0x6310, symBinAddr: 0x100009F54, symSize: 0x1C }
  - { offsetInCU: 0x16648, offset: 0x1C4BA, size: 0x8, addend: 0x0, symName: __ZNKSt3__16vectorIbNS_9allocatorIbEEE13get_allocatorB7v160006Ev, symObjAddr: 0x632C, symBinAddr: 0x100009F70, symSize: 0x30 }
  - { offsetInCU: 0x1666C, offset: 0x1C4DE, size: 0x8, addend: 0x0, symName: __ZNSt3__16vectorIbNS_9allocatorIbEEEC1B7v160006ERKS2_, symObjAddr: 0x635C, symBinAddr: 0x100009FA0, symSize: 0x34 }
  - { offsetInCU: 0x166A6, offset: 0x1C518, size: 0x8, addend: 0x0, symName: __ZNSt3__16vectorIbNS_9allocatorIbEEE11__vallocateB7v160006Em, symObjAddr: 0x6390, symBinAddr: 0x100009FD4, symSize: 0x10C }
  - { offsetInCU: 0x16705, offset: 0x1C577, size: 0x8, addend: 0x0, symName: __ZNSt3__16vectorIbNS_9allocatorIbEEE18__construct_at_endINS_14__bit_iteratorIS3_Lb0ELm0EEEEENS_9enable_ifIXsr27__is_cpp17_forward_iteratorIT_EE5valueEvE4typeES8_S8_, symObjAddr: 0x649C, symBinAddr: 0x10000A0E0, symSize: 0x154 }
  - { offsetInCU: 0x16764, offset: 0x1C5D6, size: 0x8, addend: 0x0, symName: __ZNSt3__16vectorIbNS_9allocatorIbEEE5beginB7v160006Ev, symObjAddr: 0x65F0, symBinAddr: 0x10000A234, symSize: 0x30 }
  - { offsetInCU: 0x16788, offset: 0x1C5FA, size: 0x8, addend: 0x0, symName: __ZNSt3__16vectorIbNS_9allocatorIbEEE3endB7v160006Ev, symObjAddr: 0x6620, symBinAddr: 0x10000A264, symSize: 0x30 }
  - { offsetInCU: 0x167AC, offset: 0x1C61E, size: 0x8, addend: 0x0, symName: __ZNSt3__16vectorIbNS_9allocatorIbEEE4swapERS3_, symObjAddr: 0x6650, symBinAddr: 0x10000A294, symSize: 0x84 }
  - { offsetInCU: 0x167EC, offset: 0x1C65E, size: 0x8, addend: 0x0, symName: __ZNSt3__116allocator_traitsINS_9allocatorImEEE8max_sizeB7v160006IS2_vEEmRKS2_, symObjAddr: 0x66E4, symBinAddr: 0x10000A328, symSize: 0x24 }
  - { offsetInCU: 0x16819, offset: 0x1C68B, size: 0x8, addend: 0x0, symName: __ZNKSt3__16vectorIbNS_9allocatorIbEEE7__allocB7v160006Ev, symObjAddr: 0x6708, symBinAddr: 0x10000A34C, symSize: 0x28 }
  - { offsetInCU: 0x1683D, offset: 0x1C6AF, size: 0x8, addend: 0x0, symName: __ZNSt3__114numeric_limitsImE3maxB7v160006Ev, symObjAddr: 0x6730, symBinAddr: 0x10000A374, symSize: 0x14 }
  - { offsetInCU: 0x16851, offset: 0x1C6C3, size: 0x8, addend: 0x0, symName: __ZNKSt3__19allocatorImE8max_sizeB7v160006Ev, symObjAddr: 0x6744, symBinAddr: 0x10000A388, symSize: 0x14 }
  - { offsetInCU: 0x16875, offset: 0x1C6E7, size: 0x8, addend: 0x0, symName: __ZNKSt3__117__compressed_pairImNS_9allocatorImEEE6secondB7v160006Ev, symObjAddr: 0x6758, symBinAddr: 0x10000A39C, symSize: 0x24 }
  - { offsetInCU: 0x16899, offset: 0x1C70B, size: 0x8, addend: 0x0, symName: __ZNKSt3__122__compressed_pair_elemINS_9allocatorImEELi1ELb1EE5__getB7v160006Ev, symObjAddr: 0x677C, symBinAddr: 0x10000A3C0, symSize: 0x14 }
  - { offsetInCU: 0x168BD, offset: 0x1C72F, size: 0x8, addend: 0x0, symName: __ZNSt3__123__libcpp_numeric_limitsImLb1EE3maxB7v160006Ev, symObjAddr: 0x6790, symBinAddr: 0x10000A3D4, symSize: 0x8 }
  - { offsetInCU: 0x168D1, offset: 0x1C743, size: 0x8, addend: 0x0, symName: __ZNSt3__19allocatorIbEC1B7v160006ImEERKNS0_IT_EE, symObjAddr: 0x6798, symBinAddr: 0x10000A3DC, symSize: 0x34 }
  - { offsetInCU: 0x1690C, offset: 0x1C77E, size: 0x8, addend: 0x0, symName: __ZNSt3__19allocatorIbEC2B7v160006ImEERKNS0_IT_EE, symObjAddr: 0x67CC, symBinAddr: 0x10000A410, symSize: 0x30 }
  - { offsetInCU: 0x16947, offset: 0x1C7B9, size: 0x8, addend: 0x0, symName: __ZNSt3__116__non_trivial_ifILb1ENS_9allocatorIbEEEC2B7v160006Ev, symObjAddr: 0x67FC, symBinAddr: 0x10000A440, symSize: 0x14 }
  - { offsetInCU: 0x1696F, offset: 0x1C7E1, size: 0x8, addend: 0x0, symName: __ZNSt3__16vectorIbNS_9allocatorIbEEEC2B7v160006ERKS2_, symObjAddr: 0x6810, symBinAddr: 0x10000A454, symSize: 0x64 }
  - { offsetInCU: 0x169AE, offset: 0x1C820, size: 0x8, addend: 0x0, symName: __ZNSt3__19allocatorImEC1B7v160006IbEERKNS0_IT_EE, symObjAddr: 0x6874, symBinAddr: 0x10000A4B8, symSize: 0x34 }
  - { offsetInCU: 0x169EE, offset: 0x1C860, size: 0x8, addend: 0x0, symName: __ZNSt3__117__compressed_pairImNS_9allocatorImEEEC1B7v160006IiS2_EEOT_OT0_, symObjAddr: 0x68A8, symBinAddr: 0x10000A4EC, symSize: 0x3C }
  - { offsetInCU: 0x16A44, offset: 0x1C8B6, size: 0x8, addend: 0x0, symName: __ZNSt3__19allocatorImEC2B7v160006IbEERKNS0_IT_EE, symObjAddr: 0x68E4, symBinAddr: 0x10000A528, symSize: 0x30 }
  - { offsetInCU: 0x16A7F, offset: 0x1C8F1, size: 0x8, addend: 0x0, symName: __ZNSt3__117__compressed_pairImNS_9allocatorImEEEC2B7v160006IiS2_EEOT_OT0_, symObjAddr: 0x6914, symBinAddr: 0x10000A558, symSize: 0x44 }
  - { offsetInCU: 0x16AD5, offset: 0x1C947, size: 0x8, addend: 0x0, symName: __ZNSt3__122__compressed_pair_elemINS_9allocatorImEELi1ELb1EEC2B7v160006IS2_vEEOT_, symObjAddr: 0x6958, symBinAddr: 0x10000A59C, symSize: 0x18 }
  - { offsetInCU: 0x16B15, offset: 0x1C987, size: 0x8, addend: 0x0, symName: __ZNSt3__16vectorIbNS_9allocatorIbEEE26__external_cap_to_internalB7v160006Em, symObjAddr: 0x69B0, symBinAddr: 0x10000A5F4, symSize: 0x24 }
  - { offsetInCU: 0x16B38, offset: 0x1C9AA, size: 0x8, addend: 0x0, symName: __ZNSt3__19allocatorImE8allocateB7v160006Em, symObjAddr: 0x6A08, symBinAddr: 0x10000A64C, symSize: 0x84 }
  - { offsetInCU: 0x16B6A, offset: 0x1C9DC, size: 0x8, addend: 0x0, symName: __ZNSt3__114__bit_iteratorINS_6vectorIbNS_9allocatorIbEEEELb0ELm0EEC1B7v160006ERKS5_, symObjAddr: 0x6AE8, symBinAddr: 0x10000A72C, symSize: 0x34 }
  - { offsetInCU: 0x16BA1, offset: 0x1CA13, size: 0x8, addend: 0x0, symName: __ZNSt3__16vectorIbNS_9allocatorIbEEE11__make_iterB7v160006Em, symObjAddr: 0x6C04, symBinAddr: 0x10000A848, symSize: 0x64 }
  - { offsetInCU: 0x16BD4, offset: 0x1CA46, size: 0x8, addend: 0x0, symName: __ZNSt3__114__bit_iteratorINS_6vectorIbNS_9allocatorIbEEEELb0ELm0EEC2B7v160006ERKS5_, symObjAddr: 0x6CE8, symBinAddr: 0x10000A92C, symSize: 0x30 }
  - { offsetInCU: 0x16C1F, offset: 0x1CA91, size: 0x8, addend: 0x0, symName: __ZNKSt3__16__lessIllEclB7v160006ERKlS3_, symObjAddr: 0x7594, symBinAddr: 0x10000B1D8, symSize: 0x34 }
  - { offsetInCU: 0x16C8C, offset: 0x1CAFE, size: 0x8, addend: 0x0, symName: __ZNKSt3__114__copy_trivialclB7v160006ImmLi0EEENS_4pairIPT_PT0_EES4_S4_S6_, symObjAddr: 0x77B4, symBinAddr: 0x10000B3F8, symSize: 0x48 }
  - { offsetInCU: 0x16CF3, offset: 0x1CB65, size: 0x8, addend: 0x0, symName: __ZNSt3__14pairIPmS1_EC1B7v160006ERKS1_S4_, symObjAddr: 0x7990, symBinAddr: 0x10000B5D4, symSize: 0x3C }
  - { offsetInCU: 0x16D37, offset: 0x1CBA9, size: 0x8, addend: 0x0, symName: __ZNSt3__14pairIPmS1_EC2B7v160006ERKS1_S4_, symObjAddr: 0x79CC, symBinAddr: 0x10000B610, symSize: 0x34 }
  - { offsetInCU: 0x16D7B, offset: 0x1CBED, size: 0x8, addend: 0x0, symName: __ZNSt3__118__unwrap_iter_implIPmLb1EE8__unwrapB7v160006ES1_, symObjAddr: 0x7A00, symBinAddr: 0x10000B644, symSize: 0x24 }
  - { offsetInCU: 0x16D9D, offset: 0x1CC0F, size: 0x8, addend: 0x0, symName: __ZNSt3__118__unwrap_iter_implIPmLb1EE8__rewrapB7v160006ES1_S1_, symObjAddr: 0x7A24, symBinAddr: 0x10000B668, symSize: 0x50 }
  - { offsetInCU: 0x16DCD, offset: 0x1CC3F, size: 0x8, addend: 0x0, symName: __ZNSt3__114__bit_iteratorINS_6vectorIbNS_9allocatorIbEEEELb0ELm0EEC1B7v160006EPmj, symObjAddr: 0x7A74, symBinAddr: 0x10000B6B8, symSize: 0x3C }
  - { offsetInCU: 0x16E13, offset: 0x1CC85, size: 0x8, addend: 0x0, symName: __ZNSt3__114__bit_iteratorINS_6vectorIbNS_9allocatorIbEEEELb0ELm0EEC2B7v160006EPmj, symObjAddr: 0x7AB0, symBinAddr: 0x10000B6F4, symSize: 0x2C }
  - { offsetInCU: 0x16E59, offset: 0x1CCCB, size: 0x8, addend: 0x0, symName: __ZNSt3__16vectorIbNS_9allocatorIbEEE10__align_itB7v160006Em, symObjAddr: 0x7B68, symBinAddr: 0x10000B7AC, symSize: 0x1C }
  - { offsetInCU: 0x16E7C, offset: 0x1CCEE, size: 0x8, addend: 0x0, symName: __ZNSt3__16vectorIbNS_9allocatorIbEEE10__make_refB7v160006Em, symObjAddr: 0x7B84, symBinAddr: 0x10000B7C8, symSize: 0x60 }
  - { offsetInCU: 0x16EAF, offset: 0x1CD21, size: 0x8, addend: 0x0, symName: __ZNSt3__115__bit_referenceINS_6vectorIbNS_9allocatorIbEEEELb1EEC1B7v160006EPmm, symObjAddr: 0x7BE4, symBinAddr: 0x10000B828, symSize: 0x3C }
  - { offsetInCU: 0x16EF3, offset: 0x1CD65, size: 0x8, addend: 0x0, symName: __ZNSt3__115__bit_referenceINS_6vectorIbNS_9allocatorIbEEEELb1EEC2B7v160006EPmm, symObjAddr: 0x7C20, symBinAddr: 0x10000B864, symSize: 0x2C }
  - { offsetInCU: 0x16F37, offset: 0x1CDA9, size: 0x8, addend: 0x0, symName: __ZNSt3__13mapIiNS0_IiNS_4pairIi10TEXT_COLOREENS_4lessIiEENS_9allocatorINS1_IKiS3_EEEEEES5_NS6_INS1_IS7_SA_EEEEEC2B7v160006Ev, symObjAddr: 0x8068, symBinAddr: 0x10000B890, symSize: 0x40 }
  - { offsetInCU: 0x16F5F, offset: 0x1CDD1, size: 0x8, addend: 0x0, symName: __ZNSt3__119__map_value_compareIiNS_12__value_typeIiNS_3mapIiNS_4pairIi10TEXT_COLOREENS_4lessIiEENS_9allocatorINS3_IKiS5_EEEEEEEES7_Lb1EEC1B7v160006ES7_, symObjAddr: 0x80A8, symBinAddr: 0x10000B8D0, symSize: 0x2C }
  - { offsetInCU: 0x16F96, offset: 0x1CE08, size: 0x8, addend: 0x0, symName: __ZNSt3__16__treeINS_12__value_typeIiNS_3mapIiNS_4pairIi10TEXT_COLOREENS_4lessIiEENS_9allocatorINS3_IKiS5_EEEEEEEENS_19__map_value_compareIiSD_S7_Lb1EEENS8_ISD_EEEC1ERKSF_, symObjAddr: 0x80D4, symBinAddr: 0x10000B8FC, symSize: 0x34 }
  - { offsetInCU: 0x16FD0, offset: 0x1CE42, size: 0x8, addend: 0x0, symName: __ZNSt3__119__map_value_compareIiNS_12__value_typeIiNS_3mapIiNS_4pairIi10TEXT_COLOREENS_4lessIiEENS_9allocatorINS3_IKiS5_EEEEEEEES7_Lb1EEC2B7v160006ES7_, symObjAddr: 0x8108, symBinAddr: 0x10000B930, symSize: 0x14 }
  - { offsetInCU: 0x17007, offset: 0x1CE79, size: 0x8, addend: 0x0, symName: __ZNSt3__16__treeINS_12__value_typeIiNS_3mapIiNS_4pairIi10TEXT_COLOREENS_4lessIiEENS_9allocatorINS3_IKiS5_EEEEEEEENS_19__map_value_compareIiSD_S7_Lb1EEENS8_ISD_EEEC2ERKSF_, symObjAddr: 0x811C, symBinAddr: 0x10000B944, symSize: 0x70 }
  - { offsetInCU: 0x17041, offset: 0x1CEB3, size: 0x8, addend: 0x0, symName: __ZNSt3__117__compressed_pairINS_15__tree_end_nodeIPNS_16__tree_node_baseIPvEEEENS_9allocatorINS_11__tree_nodeINS_12__value_typeIiNS_3mapIiNS_4pairIi10TEXT_COLOREENS_4lessIiEENS7_INSB_IKiSD_EEEEEEEES3_EEEEEC1B7v160006ILb1EvEEv, symObjAddr: 0x818C, symBinAddr: 0x10000B9B4, symSize: 0x2C }
  - { offsetInCU: 0x17074, offset: 0x1CEE6, size: 0x8, addend: 0x0, symName: __ZNSt3__117__compressed_pairImNS_19__map_value_compareIiNS_12__value_typeIiNS_3mapIiNS_4pairIi10TEXT_COLOREENS_4lessIiEENS_9allocatorINS4_IKiS6_EEEEEEEES8_Lb1EEEEC1B7v160006IiRKSF_EEOT_OT0_, symObjAddr: 0x81B8, symBinAddr: 0x10000B9E0, symSize: 0x3C }
  - { offsetInCU: 0x170CA, offset: 0x1CF3C, size: 0x8, addend: 0x0, symName: __ZNSt3__16__treeINS_12__value_typeIiNS_3mapIiNS_4pairIi10TEXT_COLOREENS_4lessIiEENS_9allocatorINS3_IKiS5_EEEEEEEENS_19__map_value_compareIiSD_S7_Lb1EEENS8_ISD_EEE10__end_nodeB7v160006Ev, symObjAddr: 0x81F4, symBinAddr: 0x10000BA1C, symSize: 0x2C }
  - { offsetInCU: 0x170EE, offset: 0x1CF60, size: 0x8, addend: 0x0, symName: __ZNSt3__16__treeINS_12__value_typeIiNS_3mapIiNS_4pairIi10TEXT_COLOREENS_4lessIiEENS_9allocatorINS3_IKiS5_EEEEEEEENS_19__map_value_compareIiSD_S7_Lb1EEENS8_ISD_EEE12__begin_nodeB7v160006Ev, symObjAddr: 0x8220, symBinAddr: 0x10000BA48, symSize: 0x14 }
  - { offsetInCU: 0x17112, offset: 0x1CF84, size: 0x8, addend: 0x0, symName: __ZNSt3__117__compressed_pairINS_15__tree_end_nodeIPNS_16__tree_node_baseIPvEEEENS_9allocatorINS_11__tree_nodeINS_12__value_typeIiNS_3mapIiNS_4pairIi10TEXT_COLOREENS_4lessIiEENS7_INSB_IKiSD_EEEEEEEES3_EEEEEC2B7v160006ILb1EvEEv, symObjAddr: 0x8234, symBinAddr: 0x10000BA5C, symSize: 0x34 }
  - { offsetInCU: 0x17145, offset: 0x1CFB7, size: 0x8, addend: 0x0, symName: __ZNSt3__122__compressed_pair_elemINS_15__tree_end_nodeIPNS_16__tree_node_baseIPvEEEELi0ELb0EEC2B7v160006ENS_16__value_init_tagE, symObjAddr: 0x8268, symBinAddr: 0x10000BA90, symSize: 0x2C }
  - { offsetInCU: 0x17177, offset: 0x1CFE9, size: 0x8, addend: 0x0, symName: __ZNSt3__122__compressed_pair_elemINS_9allocatorINS_11__tree_nodeINS_12__value_typeIiNS_3mapIiNS_4pairIi10TEXT_COLOREENS_4lessIiEENS1_INS5_IKiS7_EEEEEEEEPvEEEELi1ELb1EEC2B7v160006ENS_16__value_init_tagE, symObjAddr: 0x8294, symBinAddr: 0x10000BABC, symSize: 0x2C }
  - { offsetInCU: 0x171A9, offset: 0x1D01B, size: 0x8, addend: 0x0, symName: __ZNSt3__115__tree_end_nodeIPNS_16__tree_node_baseIPvEEEC1B7v160006Ev, symObjAddr: 0x82C0, symBinAddr: 0x10000BAE8, symSize: 0x2C }
  - { offsetInCU: 0x171D1, offset: 0x1D043, size: 0x8, addend: 0x0, symName: __ZNSt3__115__tree_end_nodeIPNS_16__tree_node_baseIPvEEEC2B7v160006Ev, symObjAddr: 0x82EC, symBinAddr: 0x10000BB14, symSize: 0x18 }
  - { offsetInCU: 0x171F9, offset: 0x1D06B, size: 0x8, addend: 0x0, symName: __ZNSt3__19allocatorINS_11__tree_nodeINS_12__value_typeIiNS_3mapIiNS_4pairIi10TEXT_COLOREENS_4lessIiEENS0_INS4_IKiS6_EEEEEEEEPvEEEC2B7v160006Ev, symObjAddr: 0x8304, symBinAddr: 0x10000BB2C, symSize: 0x2C }
  - { offsetInCU: 0x17221, offset: 0x1D093, size: 0x8, addend: 0x0, symName: __ZNSt3__116__non_trivial_ifILb1ENS_9allocatorINS_11__tree_nodeINS_12__value_typeIiNS_3mapIiNS_4pairIi10TEXT_COLOREENS_4lessIiEENS1_INS5_IKiS7_EEEEEEEEPvEEEEEC2B7v160006Ev, symObjAddr: 0x8330, symBinAddr: 0x10000BB58, symSize: 0x14 }
  - { offsetInCU: 0x17249, offset: 0x1D0BB, size: 0x8, addend: 0x0, symName: __ZNSt3__117__compressed_pairImNS_19__map_value_compareIiNS_12__value_typeIiNS_3mapIiNS_4pairIi10TEXT_COLOREENS_4lessIiEENS_9allocatorINS4_IKiS6_EEEEEEEES8_Lb1EEEEC2B7v160006IiRKSF_EEOT_OT0_, symObjAddr: 0x8344, symBinAddr: 0x10000BB6C, symSize: 0x44 }
  - { offsetInCU: 0x1729F, offset: 0x1D111, size: 0x8, addend: 0x0, symName: __ZNSt3__122__compressed_pair_elemINS_19__map_value_compareIiNS_12__value_typeIiNS_3mapIiNS_4pairIi10TEXT_COLOREENS_4lessIiEENS_9allocatorINS4_IKiS6_EEEEEEEES8_Lb1EEELi1ELb1EEC2B7v160006IRKSF_vEEOT_, symObjAddr: 0x8388, symBinAddr: 0x10000BBB0, symSize: 0x18 }
  - { offsetInCU: 0x172DF, offset: 0x1D151, size: 0x8, addend: 0x0, symName: __ZNSt3__114pointer_traitsIPNS_15__tree_end_nodeIPNS_16__tree_node_baseIPvEEEEE10pointer_toB7v160006ERS6_, symObjAddr: 0x83A0, symBinAddr: 0x10000BBC8, symSize: 0x14 }
  - { offsetInCU: 0x17301, offset: 0x1D173, size: 0x8, addend: 0x0, symName: __ZNSt3__117__compressed_pairINS_15__tree_end_nodeIPNS_16__tree_node_baseIPvEEEENS_9allocatorINS_11__tree_nodeINS_12__value_typeIiNS_3mapIiNS_4pairIi10TEXT_COLOREENS_4lessIiEENS7_INSB_IKiSD_EEEEEEEES3_EEEEE5firstB7v160006Ev, symObjAddr: 0x83B4, symBinAddr: 0x10000BBDC, symSize: 0x24 }
  - { offsetInCU: 0x17325, offset: 0x1D197, size: 0x8, addend: 0x0, symName: __ZNSt3__122__compressed_pair_elemINS_15__tree_end_nodeIPNS_16__tree_node_baseIPvEEEELi0ELb0EE5__getB7v160006Ev, symObjAddr: 0x83D8, symBinAddr: 0x10000BC00, symSize: 0x14 }
  - { offsetInCU: 0x17349, offset: 0x1D1BB, size: 0x8, addend: 0x0, symName: __ZNSt3__13mapIiNS0_IiNS_4pairIi10TEXT_COLOREENS_4lessIiEENS_9allocatorINS1_IKiS3_EEEEEES5_NS6_INS1_IS7_SA_EEEEED2B7v160006Ev, symObjAddr: 0x83EC, symBinAddr: 0x10000BC14, symSize: 0x2C }
  - { offsetInCU: 0x17371, offset: 0x1D1E3, size: 0x8, addend: 0x0, symName: __ZNSt3__16__treeINS_12__value_typeIiNS_3mapIiNS_4pairIi10TEXT_COLOREENS_4lessIiEENS_9allocatorINS3_IKiS5_EEEEEEEENS_19__map_value_compareIiSD_S7_Lb1EEENS8_ISD_EEED1Ev, symObjAddr: 0x8418, symBinAddr: 0x10000BC40, symSize: 0x2C }
  - { offsetInCU: 0x1739C, offset: 0x1D20E, size: 0x8, addend: 0x0, symName: __ZNSt3__16__treeINS_12__value_typeIiNS_3mapIiNS_4pairIi10TEXT_COLOREENS_4lessIiEENS_9allocatorINS3_IKiS5_EEEEEEEENS_19__map_value_compareIiSD_S7_Lb1EEENS8_ISD_EEED2Ev, symObjAddr: 0x8444, symBinAddr: 0x10000BC6C, symSize: 0x38 }
  - { offsetInCU: 0x173C7, offset: 0x1D239, size: 0x8, addend: 0x0, symName: __ZNSt3__16__treeINS_12__value_typeIiNS_3mapIiNS_4pairIi10TEXT_COLOREENS_4lessIiEENS_9allocatorINS3_IKiS5_EEEEEEEENS_19__map_value_compareIiSD_S7_Lb1EEENS8_ISD_EEE7destroyEPNS_11__tree_nodeISD_PvEE, symObjAddr: 0x847C, symBinAddr: 0x10000BCA4, symSize: 0xC0 }
  - { offsetInCU: 0x1741A, offset: 0x1D28C, size: 0x8, addend: 0x0, symName: __ZNKSt3__16__treeINS_12__value_typeIiNS_3mapIiNS_4pairIi10TEXT_COLOREENS_4lessIiEENS_9allocatorINS3_IKiS5_EEEEEEEENS_19__map_value_compareIiSD_S7_Lb1EEENS8_ISD_EEE6__rootB7v160006Ev, symObjAddr: 0x853C, symBinAddr: 0x10000BD64, symSize: 0x28 }
  - { offsetInCU: 0x1743E, offset: 0x1D2B0, size: 0x8, addend: 0x0, symName: __ZNSt3__16__treeINS_12__value_typeIiNS_3mapIiNS_4pairIi10TEXT_COLOREENS_4lessIiEENS_9allocatorINS3_IKiS5_EEEEEEEENS_19__map_value_compareIiSD_S7_Lb1EEENS8_ISD_EEE12__node_allocB7v160006Ev, symObjAddr: 0x8564, symBinAddr: 0x10000BD8C, symSize: 0x28 }
  - { offsetInCU: 0x17462, offset: 0x1D2D4, size: 0x8, addend: 0x0, symName: __ZNSt3__116allocator_traitsINS_9allocatorINS_11__tree_nodeINS_12__value_typeIiNS_3mapIiNS_4pairIi10TEXT_COLOREENS_4lessIiEENS1_INS5_IKiS7_EEEEEEEEPvEEEEE7destroyB7v160006INS5_ISA_SD_EEvvEEvRSH_PT_, symObjAddr: 0x858C, symBinAddr: 0x10000BDB4, symSize: 0x28 }
  - { offsetInCU: 0x1749C, offset: 0x1D30E, size: 0x8, addend: 0x0, symName: __ZNSt3__122__tree_key_value_typesINS_12__value_typeIiNS_3mapIiNS_4pairIi10TEXT_COLOREENS_4lessIiEENS_9allocatorINS3_IKiS5_EEEEEEEEE9__get_ptrB7v160006ERSD_, symObjAddr: 0x85B4, symBinAddr: 0x10000BDDC, symSize: 0x24 }
  - { offsetInCU: 0x174BF, offset: 0x1D331, size: 0x8, addend: 0x0, symName: __ZNSt3__116allocator_traitsINS_9allocatorINS_11__tree_nodeINS_12__value_typeIiNS_3mapIiNS_4pairIi10TEXT_COLOREENS_4lessIiEENS1_INS5_IKiS7_EEEEEEEEPvEEEEE10deallocateB7v160006ERSH_PSG_m, symObjAddr: 0x85D8, symBinAddr: 0x10000BE00, symSize: 0x34 }
  - { offsetInCU: 0x17500, offset: 0x1D372, size: 0x8, addend: 0x0, symName: __ZNSt3__117__compressed_pairINS_15__tree_end_nodeIPNS_16__tree_node_baseIPvEEEENS_9allocatorINS_11__tree_nodeINS_12__value_typeIiNS_3mapIiNS_4pairIi10TEXT_COLOREENS_4lessIiEENS7_INSB_IKiSD_EEEEEEEES3_EEEEE6secondB7v160006Ev, symObjAddr: 0x860C, symBinAddr: 0x10000BE34, symSize: 0x24 }
  - { offsetInCU: 0x17524, offset: 0x1D396, size: 0x8, addend: 0x0, symName: __ZNSt3__122__compressed_pair_elemINS_9allocatorINS_11__tree_nodeINS_12__value_typeIiNS_3mapIiNS_4pairIi10TEXT_COLOREENS_4lessIiEENS1_INS5_IKiS7_EEEEEEEEPvEEEELi1ELb1EE5__getB7v160006Ev, symObjAddr: 0x8630, symBinAddr: 0x10000BE58, symSize: 0x14 }
  - { offsetInCU: 0x17548, offset: 0x1D3BA, size: 0x8, addend: 0x0, symName: __ZNSt3__14pairIKiNS_3mapIiNS0_Ii10TEXT_COLOREENS_4lessIiEENS_9allocatorINS0_IS1_S4_EEEEEEED1Ev, symObjAddr: 0x8644, symBinAddr: 0x10000BE6C, symSize: 0x2C }
  - { offsetInCU: 0x17572, offset: 0x1D3E4, size: 0x8, addend: 0x0, symName: __ZNSt3__14pairIKiNS_3mapIiNS0_Ii10TEXT_COLOREENS_4lessIiEENS_9allocatorINS0_IS1_S4_EEEEEEED2Ev, symObjAddr: 0x8670, symBinAddr: 0x10000BE98, symSize: 0x30 }
  - { offsetInCU: 0x1759C, offset: 0x1D40E, size: 0x8, addend: 0x0, symName: __ZNSt3__13mapIiNS_4pairIi10TEXT_COLOREENS_4lessIiEENS_9allocatorINS1_IKiS3_EEEEED1B7v160006Ev, symObjAddr: 0x86A0, symBinAddr: 0x10000BEC8, symSize: 0x2C }
  - { offsetInCU: 0x175C4, offset: 0x1D436, size: 0x8, addend: 0x0, symName: __ZNSt3__13mapIiNS_4pairIi10TEXT_COLOREENS_4lessIiEENS_9allocatorINS1_IKiS3_EEEEED2B7v160006Ev, symObjAddr: 0x86CC, symBinAddr: 0x10000BEF4, symSize: 0x2C }
  - { offsetInCU: 0x175EC, offset: 0x1D45E, size: 0x8, addend: 0x0, symName: __ZNSt3__16__treeINS_12__value_typeIiNS_4pairIi10TEXT_COLOREEEENS_19__map_value_compareIiS5_NS_4lessIiEELb1EEENS_9allocatorIS5_EEED1Ev, symObjAddr: 0x86F8, symBinAddr: 0x10000BF20, symSize: 0x2C }
  - { offsetInCU: 0x17617, offset: 0x1D489, size: 0x8, addend: 0x0, symName: __ZNSt3__16__treeINS_12__value_typeIiNS_4pairIi10TEXT_COLOREEEENS_19__map_value_compareIiS5_NS_4lessIiEELb1EEENS_9allocatorIS5_EEED2Ev, symObjAddr: 0x8724, symBinAddr: 0x10000BF4C, symSize: 0x38 }
  - { offsetInCU: 0x17642, offset: 0x1D4B4, size: 0x8, addend: 0x0, symName: __ZNSt3__16__treeINS_12__value_typeIiNS_4pairIi10TEXT_COLOREEEENS_19__map_value_compareIiS5_NS_4lessIiEELb1EEENS_9allocatorIS5_EEE7destroyEPNS_11__tree_nodeIS5_PvEE, symObjAddr: 0x875C, symBinAddr: 0x10000BF84, symSize: 0xC0 }
  - { offsetInCU: 0x17695, offset: 0x1D507, size: 0x8, addend: 0x0, symName: __ZNKSt3__16__treeINS_12__value_typeIiNS_4pairIi10TEXT_COLOREEEENS_19__map_value_compareIiS5_NS_4lessIiEELb1EEENS_9allocatorIS5_EEE6__rootB7v160006Ev, symObjAddr: 0x881C, symBinAddr: 0x10000C044, symSize: 0x28 }
  - { offsetInCU: 0x176B9, offset: 0x1D52B, size: 0x8, addend: 0x0, symName: __ZNSt3__16__treeINS_12__value_typeIiNS_4pairIi10TEXT_COLOREEEENS_19__map_value_compareIiS5_NS_4lessIiEELb1EEENS_9allocatorIS5_EEE12__node_allocB7v160006Ev, symObjAddr: 0x8844, symBinAddr: 0x10000C06C, symSize: 0x28 }
  - { offsetInCU: 0x176DD, offset: 0x1D54F, size: 0x8, addend: 0x0, symName: __ZNSt3__116allocator_traitsINS_9allocatorINS_11__tree_nodeINS_12__value_typeIiNS_4pairIi10TEXT_COLOREEEEPvEEEEE7destroyB7v160006INS4_IKiS6_EEvvEEvRSA_PT_, symObjAddr: 0x886C, symBinAddr: 0x10000C094, symSize: 0x14 }
  - { offsetInCU: 0x17717, offset: 0x1D589, size: 0x8, addend: 0x0, symName: __ZNSt3__122__tree_key_value_typesINS_12__value_typeIiNS_4pairIi10TEXT_COLOREEEEE9__get_ptrB7v160006ERS5_, symObjAddr: 0x8880, symBinAddr: 0x10000C0A8, symSize: 0x24 }
  - { offsetInCU: 0x1773A, offset: 0x1D5AC, size: 0x8, addend: 0x0, symName: __ZNSt3__116allocator_traitsINS_9allocatorINS_11__tree_nodeINS_12__value_typeIiNS_4pairIi10TEXT_COLOREEEEPvEEEEE10deallocateB7v160006ERSA_PS9_m, symObjAddr: 0x88A4, symBinAddr: 0x10000C0CC, symSize: 0x34 }
  - { offsetInCU: 0x1777B, offset: 0x1D5ED, size: 0x8, addend: 0x0, symName: __ZNSt3__117__compressed_pairINS_15__tree_end_nodeIPNS_16__tree_node_baseIPvEEEENS_9allocatorINS_11__tree_nodeINS_12__value_typeIiNS_4pairIi10TEXT_COLOREEEES3_EEEEE6secondB7v160006Ev, symObjAddr: 0x88D8, symBinAddr: 0x10000C100, symSize: 0x24 }
  - { offsetInCU: 0x1779F, offset: 0x1D611, size: 0x8, addend: 0x0, symName: __ZNSt3__122__compressed_pair_elemINS_9allocatorINS_11__tree_nodeINS_12__value_typeIiNS_4pairIi10TEXT_COLOREEEEPvEEEELi1ELb1EE5__getB7v160006Ev, symObjAddr: 0x88FC, symBinAddr: 0x10000C124, symSize: 0x14 }
  - { offsetInCU: 0x177C3, offset: 0x1D635, size: 0x8, addend: 0x0, symName: __ZNSt3__112__value_typeIiNS_4pairIi10TEXT_COLOREEE11__get_valueB7v160006Ev, symObjAddr: 0x8910, symBinAddr: 0x10000C138, symSize: 0x14 }
  - { offsetInCU: 0x177E7, offset: 0x1D659, size: 0x8, addend: 0x0, symName: __ZNSt3__19allocatorINS_11__tree_nodeINS_12__value_typeIiNS_4pairIi10TEXT_COLOREEEEPvEEE10deallocateB7v160006EPS8_m, symObjAddr: 0x8924, symBinAddr: 0x10000C14C, symSize: 0x74 }
  - { offsetInCU: 0x17827, offset: 0x1D699, size: 0x8, addend: 0x0, symName: __ZNKSt3__16__treeINS_12__value_typeIiNS_4pairIi10TEXT_COLOREEEENS_19__map_value_compareIiS5_NS_4lessIiEELb1EEENS_9allocatorIS5_EEE10__end_nodeB7v160006Ev, symObjAddr: 0x8998, symBinAddr: 0x10000C1C0, symSize: 0x2C }
  - { offsetInCU: 0x1784B, offset: 0x1D6BD, size: 0x8, addend: 0x0, symName: __ZNKSt3__117__compressed_pairINS_15__tree_end_nodeIPNS_16__tree_node_baseIPvEEEENS_9allocatorINS_11__tree_nodeINS_12__value_typeIiNS_4pairIi10TEXT_COLOREEEES3_EEEEE5firstB7v160006Ev, symObjAddr: 0x89C4, symBinAddr: 0x10000C1EC, symSize: 0x24 }
  - { offsetInCU: 0x1786F, offset: 0x1D6E1, size: 0x8, addend: 0x0, symName: __ZNKSt3__122__compressed_pair_elemINS_15__tree_end_nodeIPNS_16__tree_node_baseIPvEEEELi0ELb0EE5__getB7v160006Ev, symObjAddr: 0x89E8, symBinAddr: 0x10000C210, symSize: 0x14 }
  - { offsetInCU: 0x17893, offset: 0x1D705, size: 0x8, addend: 0x0, symName: __ZNSt3__112__value_typeIiNS_3mapIiNS_4pairIi10TEXT_COLOREENS_4lessIiEENS_9allocatorINS2_IKiS4_EEEEEEE11__get_valueB7v160006Ev, symObjAddr: 0x89FC, symBinAddr: 0x10000C224, symSize: 0x14 }
  - { offsetInCU: 0x178B7, offset: 0x1D729, size: 0x8, addend: 0x0, symName: __ZNSt3__19allocatorINS_11__tree_nodeINS_12__value_typeIiNS_3mapIiNS_4pairIi10TEXT_COLOREENS_4lessIiEENS0_INS4_IKiS6_EEEEEEEEPvEEE10deallocateB7v160006EPSF_m, symObjAddr: 0x8A10, symBinAddr: 0x10000C238, symSize: 0x70 }
  - { offsetInCU: 0x178F7, offset: 0x1D769, size: 0x8, addend: 0x0, symName: __ZNKSt3__16__treeINS_12__value_typeIiNS_3mapIiNS_4pairIi10TEXT_COLOREENS_4lessIiEENS_9allocatorINS3_IKiS5_EEEEEEEENS_19__map_value_compareIiSD_S7_Lb1EEENS8_ISD_EEE10__end_nodeB7v160006Ev, symObjAddr: 0x8A80, symBinAddr: 0x10000C2A8, symSize: 0x2C }
  - { offsetInCU: 0x1791B, offset: 0x1D78D, size: 0x8, addend: 0x0, symName: __ZNKSt3__117__compressed_pairINS_15__tree_end_nodeIPNS_16__tree_node_baseIPvEEEENS_9allocatorINS_11__tree_nodeINS_12__value_typeIiNS_3mapIiNS_4pairIi10TEXT_COLOREENS_4lessIiEENS7_INSB_IKiSD_EEEEEEEES3_EEEEE5firstB7v160006Ev, symObjAddr: 0x8AAC, symBinAddr: 0x10000C2D4, symSize: 0x24 }
  - { offsetInCU: 0x1793F, offset: 0x1D7B1, size: 0x8, addend: 0x0, symName: __ZNSt3__111char_traitsIcE6assignERcRKc, symObjAddr: 0x8AE0, symBinAddr: 0x10000C308, symSize: 0x24 }
  - { offsetInCU: 0x1796F, offset: 0x1D7E1, size: 0x8, addend: 0x0, symName: __ZNSt3__112basic_stringIcNS_11char_traitsIcEENS_9allocatorIcEEE18__get_long_pointerB7v160006Ev, symObjAddr: 0x8B04, symBinAddr: 0x10000C32C, symSize: 0x28 }
  - { offsetInCU: 0x17993, offset: 0x1D805, size: 0x8, addend: 0x0, symName: __ZNSt3__112basic_stringIcNS_11char_traitsIcEENS_9allocatorIcEEE19__get_short_pointerB7v160006Ev, symObjAddr: 0x8B2C, symBinAddr: 0x10000C354, symSize: 0x28 }
  - { offsetInCU: 0x179B7, offset: 0x1D829, size: 0x8, addend: 0x0, symName: __ZNSt3__112basic_stringIcNS_11char_traitsIcEENS_9allocatorIcEEE16__set_short_sizeB7v160006Em, symObjAddr: 0x8B54, symBinAddr: 0x10000C37C, symSize: 0x78 }
  - { offsetInCU: 0x179EA, offset: 0x1D85C, size: 0x8, addend: 0x0, symName: __ZNSt3__114pointer_traitsIPcE10pointer_toB7v160006ERc, symObjAddr: 0x8BCC, symBinAddr: 0x10000C3F4, symSize: 0x14 }
  - { offsetInCU: 0x17A0C, offset: 0x1D87E, size: 0x8, addend: 0x0, symName: __ZNSt3__16__treeINS_12__value_typeIiNS_3mapIiNS_4pairIi10TEXT_COLOREENS_4lessIiEENS_9allocatorINS3_IKiS5_EEEEEEEENS_19__map_value_compareIiSD_S7_Lb1EEENS8_ISD_EEE4findIiEENS_15__tree_iteratorISD_PNS_11__tree_nodeISD_PvEElEERKT_, symObjAddr: 0x8BE0, symBinAddr: 0x10000C408, symSize: 0xF8 }
  - { offsetInCU: 0x17A5A, offset: 0x1D8CC, size: 0x8, addend: 0x0, symName: __ZNSt3__114__map_iteratorINS_15__tree_iteratorINS_12__value_typeIiNS_3mapIiNS_4pairIi10TEXT_COLOREENS_4lessIiEENS_9allocatorINS4_IKiS6_EEEEEEEEPNS_11__tree_nodeISE_PvEElEEEC1B7v160006ESJ_, symObjAddr: 0x8CD8, symBinAddr: 0x10000C500, symSize: 0x34 }
  - { offsetInCU: 0x17A91, offset: 0x1D903, size: 0x8, addend: 0x0, symName: __ZNSt3__16__treeINS_12__value_typeIiNS_3mapIiNS_4pairIi10TEXT_COLOREENS_4lessIiEENS_9allocatorINS3_IKiS5_EEEEEEEENS_19__map_value_compareIiSD_S7_Lb1EEENS8_ISD_EEE13__lower_boundIiEENS_15__tree_iteratorISD_PNS_11__tree_nodeISD_PvEElEERKT_SN_PNS_15__tree_end_nodeIPNS_16__tree_node_baseISL_EEEE, symObjAddr: 0x8D0C, symBinAddr: 0x10000C534, symSize: 0xA4 }
  - { offsetInCU: 0x17AEE, offset: 0x1D960, size: 0x8, addend: 0x0, symName: __ZNSt3__16__treeINS_12__value_typeIiNS_3mapIiNS_4pairIi10TEXT_COLOREENS_4lessIiEENS_9allocatorINS3_IKiS5_EEEEEEEENS_19__map_value_compareIiSD_S7_Lb1EEENS8_ISD_EEE3endB7v160006Ev, symObjAddr: 0x8DE4, symBinAddr: 0x10000C60C, symSize: 0x34 }
  - { offsetInCU: 0x17B12, offset: 0x1D984, size: 0x8, addend: 0x0, symName: __ZNSt3__16__treeINS_12__value_typeIiNS_3mapIiNS_4pairIi10TEXT_COLOREENS_4lessIiEENS_9allocatorINS3_IKiS5_EEEEEEEENS_19__map_value_compareIiSD_S7_Lb1EEENS8_ISD_EEE10value_compB7v160006Ev, symObjAddr: 0x8E18, symBinAddr: 0x10000C640, symSize: 0x28 }
  - { offsetInCU: 0x17B36, offset: 0x1D9A8, size: 0x8, addend: 0x0, symName: __ZNKSt3__119__map_value_compareIiNS_12__value_typeIiNS_3mapIiNS_4pairIi10TEXT_COLOREENS_4lessIiEENS_9allocatorINS3_IKiS5_EEEEEEEES7_Lb1EEclB7v160006ERS9_RKSD_, symObjAddr: 0x8E40, symBinAddr: 0x10000C668, symSize: 0x50 }
  - { offsetInCU: 0x17B78, offset: 0x1D9EA, size: 0x8, addend: 0x0, symName: __ZNKSt3__115__tree_iteratorINS_12__value_typeIiNS_3mapIiNS_4pairIi10TEXT_COLOREENS_4lessIiEENS_9allocatorINS3_IKiS5_EEEEEEEEPNS_11__tree_nodeISD_PvEElEdeB7v160006Ev, symObjAddr: 0x8E90, symBinAddr: 0x10000C6B8, symSize: 0x28 }
  - { offsetInCU: 0x17B9C, offset: 0x1DA0E, size: 0x8, addend: 0x0, symName: __ZNKSt3__119__map_value_compareIiNS_12__value_typeIiNS_3mapIiNS_4pairIi10TEXT_COLOREENS_4lessIiEENS_9allocatorINS3_IKiS5_EEEEEEEES7_Lb1EEclB7v160006ERKSD_RS9_, symObjAddr: 0x8EB8, symBinAddr: 0x10000C6E0, symSize: 0x48 }
  - { offsetInCU: 0x17BDE, offset: 0x1DA50, size: 0x8, addend: 0x0, symName: __ZNSt3__115__tree_iteratorINS_12__value_typeIiNS_3mapIiNS_4pairIi10TEXT_COLOREENS_4lessIiEENS_9allocatorINS3_IKiS5_EEEEEEEEPNS_11__tree_nodeISD_PvEElEC1B7v160006EPNS_15__tree_end_nodeIPNS_16__tree_node_baseISF_EEEE, symObjAddr: 0x8F00, symBinAddr: 0x10000C728, symSize: 0x34 }
  - { offsetInCU: 0x17C15, offset: 0x1DA87, size: 0x8, addend: 0x0, symName: __ZNKSt3__14lessIiEclB7v160006ERKiS3_, symObjAddr: 0x8F34, symBinAddr: 0x10000C75C, symSize: 0x34 }
  - { offsetInCU: 0x17C57, offset: 0x1DAC9, size: 0x8, addend: 0x0, symName: __ZNKSt3__112__value_typeIiNS_3mapIiNS_4pairIi10TEXT_COLOREENS_4lessIiEENS_9allocatorINS2_IKiS4_EEEEEEE11__get_valueB7v160006Ev, symObjAddr: 0x8F68, symBinAddr: 0x10000C790, symSize: 0x14 }
  - { offsetInCU: 0x17C7B, offset: 0x1DAED, size: 0x8, addend: 0x0, symName: __ZNSt3__115__tree_iteratorINS_12__value_typeIiNS_3mapIiNS_4pairIi10TEXT_COLOREENS_4lessIiEENS_9allocatorINS3_IKiS5_EEEEEEEEPNS_11__tree_nodeISD_PvEElEC2B7v160006EPNS_15__tree_end_nodeIPNS_16__tree_node_baseISF_EEEE, symObjAddr: 0x8F7C, symBinAddr: 0x10000C7A4, symSize: 0x20 }
  - { offsetInCU: 0x17CB2, offset: 0x1DB24, size: 0x8, addend: 0x0, symName: __ZNSt3__117__compressed_pairImNS_19__map_value_compareIiNS_12__value_typeIiNS_3mapIiNS_4pairIi10TEXT_COLOREENS_4lessIiEENS_9allocatorINS4_IKiS6_EEEEEEEES8_Lb1EEEE6secondB7v160006Ev, symObjAddr: 0x8FCC, symBinAddr: 0x10000C7F4, symSize: 0x24 }
  - { offsetInCU: 0x17CD6, offset: 0x1DB48, size: 0x8, addend: 0x0, symName: __ZNSt3__122__compressed_pair_elemINS_19__map_value_compareIiNS_12__value_typeIiNS_3mapIiNS_4pairIi10TEXT_COLOREENS_4lessIiEENS_9allocatorINS4_IKiS6_EEEEEEEES8_Lb1EEELi1ELb1EE5__getB7v160006Ev, symObjAddr: 0x8FF0, symBinAddr: 0x10000C818, symSize: 0x14 }
  - { offsetInCU: 0x17CFA, offset: 0x1DB6C, size: 0x8, addend: 0x0, symName: __ZNKSt3__115__tree_iteratorINS_12__value_typeIiNS_3mapIiNS_4pairIi10TEXT_COLOREENS_4lessIiEENS_9allocatorINS3_IKiS5_EEEEEEEEPNS_11__tree_nodeISD_PvEElE8__get_npB7v160006Ev, symObjAddr: 0x9004, symBinAddr: 0x10000C82C, symSize: 0x18 }
  - { offsetInCU: 0x17D1E, offset: 0x1DB90, size: 0x8, addend: 0x0, symName: __ZNSt3__114__map_iteratorINS_15__tree_iteratorINS_12__value_typeIiNS_3mapIiNS_4pairIi10TEXT_COLOREENS_4lessIiEENS_9allocatorINS4_IKiS6_EEEEEEEEPNS_11__tree_nodeISE_PvEElEEEC2B7v160006ESJ_, symObjAddr: 0x901C, symBinAddr: 0x10000C844, symSize: 0x20 }
  - { offsetInCU: 0x17D55, offset: 0x1DBC7, size: 0x8, addend: 0x0, symName: __ZNSt3__112basic_stringIcNS_11char_traitsIcEENS_9allocatorIcEEE6appendB7v160006ERKS5_, symObjAddr: 0x903C, symBinAddr: 0x10000C864, symSize: 0x4C }
  - { offsetInCU: 0x17D88, offset: 0x1DBFA, size: 0x8, addend: 0x0, symName: __ZNSt3__16__treeINS_12__value_typeIiNS_3mapIiNS_4pairIi10TEXT_COLOREENS_4lessIiEENS_9allocatorINS3_IKiS5_EEEEEEEENS_19__map_value_compareIiSD_S7_Lb1EEENS8_ISD_EEE12__find_equalIiEERPNS_16__tree_node_baseIPvEERPNS_15__tree_end_nodeISM_EERKT_, symObjAddr: 0x90E4, symBinAddr: 0x10000C8B0, symSize: 0x184 }
  - { offsetInCU: 0x17DF4, offset: 0x1DC66, size: 0x8, addend: 0x0, symName: __ZNSt3__13mapIiNS0_IiNS_4pairIi10TEXT_COLOREENS_4lessIiEENS_9allocatorINS1_IKiS3_EEEEEES5_NS6_INS1_IS7_SA_EEEEE25__construct_node_with_keyERS7_, symObjAddr: 0x9268, symBinAddr: 0x10000CA34, symSize: 0x144 }
  - { offsetInCU: 0x17E49, offset: 0x1DCBB, size: 0x8, addend: 0x0, symName: __ZNSt3__16__treeINS_12__value_typeIiNS_3mapIiNS_4pairIi10TEXT_COLOREENS_4lessIiEENS_9allocatorINS3_IKiS5_EEEEEEEENS_19__map_value_compareIiSD_S7_Lb1EEENS8_ISD_EEE16__insert_node_atEPNS_15__tree_end_nodeIPNS_16__tree_node_baseIPvEEEERSM_SM_, symObjAddr: 0x93AC, symBinAddr: 0x10000CB78, symSize: 0xCC }
  - { offsetInCU: 0x17E9D, offset: 0x1DD0F, size: 0x8, addend: 0x0, symName: __ZNKSt3__110unique_ptrINS_11__tree_nodeINS_12__value_typeIiNS_3mapIiNS_4pairIi10TEXT_COLOREENS_4lessIiEENS_9allocatorINS4_IKiS6_EEEEEEEEPvEENS_21__map_node_destructorINS9_ISG_EEEEE3getB7v160006Ev, symObjAddr: 0x9478, symBinAddr: 0x10000CC44, symSize: 0x28 }
  - { offsetInCU: 0x17EC1, offset: 0x1DD33, size: 0x8, addend: 0x0, symName: __ZNSt3__110unique_ptrINS_11__tree_nodeINS_12__value_typeIiNS_3mapIiNS_4pairIi10TEXT_COLOREENS_4lessIiEENS_9allocatorINS4_IKiS6_EEEEEEEEPvEENS_21__map_node_destructorINS9_ISG_EEEEE7releaseB7v160006Ev, symObjAddr: 0x94A0, symBinAddr: 0x10000CC6C, symSize: 0x44 }
  - { offsetInCU: 0x17EF4, offset: 0x1DD66, size: 0x8, addend: 0x0, symName: __ZNSt3__110unique_ptrINS_11__tree_nodeINS_12__value_typeIiNS_3mapIiNS_4pairIi10TEXT_COLOREENS_4lessIiEENS_9allocatorINS4_IKiS6_EEEEEEEEPvEENS_21__map_node_destructorINS9_ISG_EEEEED1B7v160006Ev, symObjAddr: 0x94E4, symBinAddr: 0x10000CCB0, symSize: 0x2C }
  - { offsetInCU: 0x17F1C, offset: 0x1DD8E, size: 0x8, addend: 0x0, symName: __ZNKSt3__16__treeINS_12__value_typeIiNS_3mapIiNS_4pairIi10TEXT_COLOREENS_4lessIiEENS_9allocatorINS3_IKiS5_EEEEEEEENS_19__map_value_compareIiSD_S7_Lb1EEENS8_ISD_EEE10__root_ptrEv, symObjAddr: 0x9510, symBinAddr: 0x10000CCDC, symSize: 0x24 }
  - { offsetInCU: 0x17F40, offset: 0x1DDB2, size: 0x8, addend: 0x0, symName: __ZNSt3__116allocator_traitsINS_9allocatorINS_11__tree_nodeINS_12__value_typeIiNS_3mapIiNS_4pairIi10TEXT_COLOREENS_4lessIiEENS1_INS5_IKiS7_EEEEEEEEPvEEEEE8allocateB7v160006ERSH_m, symObjAddr: 0x9534, symBinAddr: 0x10000CD00, symSize: 0x2C }
  - { offsetInCU: 0x17F72, offset: 0x1DDE4, size: 0x8, addend: 0x0, symName: __ZNSt3__121__map_node_destructorINS_9allocatorINS_11__tree_nodeINS_12__value_typeIiNS_3mapIiNS_4pairIi10TEXT_COLOREENS_4lessIiEENS1_INS5_IKiS7_EEEEEEEEPvEEEEEC1B7v160006ERSH_, symObjAddr: 0x9560, symBinAddr: 0x10000CD2C, symSize: 0x34 }
  - { offsetInCU: 0x17FAE, offset: 0x1DE20, size: 0x8, addend: 0x0, symName: __ZNSt3__110unique_ptrINS_11__tree_nodeINS_12__value_typeIiNS_3mapIiNS_4pairIi10TEXT_COLOREENS_4lessIiEENS_9allocatorINS4_IKiS6_EEEEEEEEPvEENS_21__map_node_destructorINS9_ISG_EEEEEC1B7v160006ILb1EvEEPSG_NS_16__dependent_typeINS_27__unique_ptr_deleter_sfinaeISJ_EEXT_EE20__good_rval_ref_typeE, symObjAddr: 0x9594, symBinAddr: 0x10000CD60, symSize: 0x3C }
  - { offsetInCU: 0x18002, offset: 0x1DE74, size: 0x8, addend: 0x0, symName: __ZNSt3__116allocator_traitsINS_9allocatorINS_11__tree_nodeINS_12__value_typeIiNS_3mapIiNS_4pairIi10TEXT_COLOREENS_4lessIiEENS1_INS5_IKiS7_EEEEEEEEPvEEEEE9constructB7v160006ISA_JRSA_EvEEvRSH_PT_DpOT0_, symObjAddr: 0x95D0, symBinAddr: 0x10000CD9C, symSize: 0x34 }
  - { offsetInCU: 0x18058, offset: 0x1DECA, size: 0x8, addend: 0x0, symName: __ZNKSt3__110unique_ptrINS_11__tree_nodeINS_12__value_typeIiNS_3mapIiNS_4pairIi10TEXT_COLOREENS_4lessIiEENS_9allocatorINS4_IKiS6_EEEEEEEEPvEENS_21__map_node_destructorINS9_ISG_EEEEEptB7v160006Ev, symObjAddr: 0x9604, symBinAddr: 0x10000CDD0, symSize: 0x28 }
  - { offsetInCU: 0x1807C, offset: 0x1DEEE, size: 0x8, addend: 0x0, symName: __ZNSt3__110unique_ptrINS_11__tree_nodeINS_12__value_typeIiNS_3mapIiNS_4pairIi10TEXT_COLOREENS_4lessIiEENS_9allocatorINS4_IKiS6_EEEEEEEEPvEENS_21__map_node_destructorINS9_ISG_EEEEE11get_deleterB7v160006Ev, symObjAddr: 0x962C, symBinAddr: 0x10000CDF8, symSize: 0x24 }
  - { offsetInCU: 0x180A5, offset: 0x1DF17, size: 0x8, addend: 0x0, symName: __ZNSt3__116allocator_traitsINS_9allocatorINS_11__tree_nodeINS_12__value_typeIiNS_3mapIiNS_4pairIi10TEXT_COLOREENS_4lessIiEENS1_INS5_IKiS7_EEEEEEEEPvEEEEE9constructB7v160006ISD_JEvEEvRSH_PT_DpOT0_, symObjAddr: 0x9650, symBinAddr: 0x10000CE1C, symSize: 0x2C }
  - { offsetInCU: 0x180E7, offset: 0x1DF59, size: 0x8, addend: 0x0, symName: __ZNSt3__19allocatorINS_11__tree_nodeINS_12__value_typeIiNS_3mapIiNS_4pairIi10TEXT_COLOREENS_4lessIiEENS0_INS4_IKiS6_EEEEEEEEPvEEE8allocateB7v160006Em, symObjAddr: 0x967C, symBinAddr: 0x10000CE48, symSize: 0x84 }
  - { offsetInCU: 0x18123, offset: 0x1DF95, size: 0x8, addend: 0x0, symName: __ZNSt3__116allocator_traitsINS_9allocatorINS_11__tree_nodeINS_12__value_typeIiNS_3mapIiNS_4pairIi10TEXT_COLOREENS_4lessIiEENS1_INS5_IKiS7_EEEEEEEEPvEEEEE8max_sizeB7v160006ISH_vEEmRKSH_, symObjAddr: 0x9700, symBinAddr: 0x10000CECC, symSize: 0x24 }
  - { offsetInCU: 0x18150, offset: 0x1DFC2, size: 0x8, addend: 0x0, symName: __ZNKSt3__19allocatorINS_11__tree_nodeINS_12__value_typeIiNS_3mapIiNS_4pairIi10TEXT_COLOREENS_4lessIiEENS0_INS4_IKiS6_EEEEEEEEPvEEE8max_sizeB7v160006Ev, symObjAddr: 0x9724, symBinAddr: 0x10000CEF0, symSize: 0x14 }
  - { offsetInCU: 0x18174, offset: 0x1DFE6, size: 0x8, addend: 0x0, symName: __ZNSt3__121__map_node_destructorINS_9allocatorINS_11__tree_nodeINS_12__value_typeIiNS_3mapIiNS_4pairIi10TEXT_COLOREENS_4lessIiEENS1_INS5_IKiS7_EEEEEEEEPvEEEEEC2B7v160006ERSH_, symObjAddr: 0x9738, symBinAddr: 0x10000CF04, symSize: 0x28 }
  - { offsetInCU: 0x181AB, offset: 0x1E01D, size: 0x8, addend: 0x0, symName: __ZNSt3__110unique_ptrINS_11__tree_nodeINS_12__value_typeIiNS_3mapIiNS_4pairIi10TEXT_COLOREENS_4lessIiEENS_9allocatorINS4_IKiS6_EEEEEEEEPvEENS_21__map_node_destructorINS9_ISG_EEEEEC2B7v160006ILb1EvEEPSG_NS_16__dependent_typeINS_27__unique_ptr_deleter_sfinaeISJ_EEXT_EE20__good_rval_ref_typeE, symObjAddr: 0x9760, symBinAddr: 0x10000CF2C, symSize: 0x5C }
  - { offsetInCU: 0x181FA, offset: 0x1E06C, size: 0x8, addend: 0x0, symName: __ZNSt3__117__compressed_pairIPNS_11__tree_nodeINS_12__value_typeIiNS_3mapIiNS_4pairIi10TEXT_COLOREENS_4lessIiEENS_9allocatorINS4_IKiS6_EEEEEEEEPvEENS_21__map_node_destructorINS9_ISG_EEEEEC1B7v160006IRSH_SK_EEOT_OT0_, symObjAddr: 0x97BC, symBinAddr: 0x10000CF88, symSize: 0x3C }
  - { offsetInCU: 0x18250, offset: 0x1E0C2, size: 0x8, addend: 0x0, symName: __ZNSt3__117__compressed_pairIPNS_11__tree_nodeINS_12__value_typeIiNS_3mapIiNS_4pairIi10TEXT_COLOREENS_4lessIiEENS_9allocatorINS4_IKiS6_EEEEEEEEPvEENS_21__map_node_destructorINS9_ISG_EEEEEC2B7v160006IRSH_SK_EEOT_OT0_, symObjAddr: 0x97F8, symBinAddr: 0x10000CFC4, symSize: 0x48 }
  - { offsetInCU: 0x182A6, offset: 0x1E118, size: 0x8, addend: 0x0, symName: __ZNSt3__122__compressed_pair_elemIPNS_11__tree_nodeINS_12__value_typeIiNS_3mapIiNS_4pairIi10TEXT_COLOREENS_4lessIiEENS_9allocatorINS4_IKiS6_EEEEEEEEPvEELi0ELb0EEC2B7v160006IRSH_vEEOT_, symObjAddr: 0x9840, symBinAddr: 0x10000D00C, symSize: 0x24 }
  - { offsetInCU: 0x182E6, offset: 0x1E158, size: 0x8, addend: 0x0, symName: __ZNSt3__122__compressed_pair_elemINS_21__map_node_destructorINS_9allocatorINS_11__tree_nodeINS_12__value_typeIiNS_3mapIiNS_4pairIi10TEXT_COLOREENS_4lessIiEENS2_INS6_IKiS8_EEEEEEEEPvEEEEEELi1ELb0EEC2B7v160006ISJ_vEEOT_, symObjAddr: 0x9864, symBinAddr: 0x10000D030, symSize: 0x24 }
  - { offsetInCU: 0x18326, offset: 0x1E198, size: 0x8, addend: 0x0, symName: __ZNSt3__19allocatorINS_11__tree_nodeINS_12__value_typeIiNS_3mapIiNS_4pairIi10TEXT_COLOREENS_4lessIiEENS0_INS4_IKiS6_EEEEEEEEPvEEE9constructB7v160006IS9_JRS9_EEEvPT_DpOT0_, symObjAddr: 0x9888, symBinAddr: 0x10000D054, symSize: 0x28 }
  - { offsetInCU: 0x1837A, offset: 0x1E1EC, size: 0x8, addend: 0x0, symName: __ZNKSt3__117__compressed_pairIPNS_11__tree_nodeINS_12__value_typeIiNS_3mapIiNS_4pairIi10TEXT_COLOREENS_4lessIiEENS_9allocatorINS4_IKiS6_EEEEEEEEPvEENS_21__map_node_destructorINS9_ISG_EEEEE5firstB7v160006Ev, symObjAddr: 0x98B0, symBinAddr: 0x10000D07C, symSize: 0x24 }
  - { offsetInCU: 0x1839E, offset: 0x1E210, size: 0x8, addend: 0x0, symName: __ZNKSt3__122__compressed_pair_elemIPNS_11__tree_nodeINS_12__value_typeIiNS_3mapIiNS_4pairIi10TEXT_COLOREENS_4lessIiEENS_9allocatorINS4_IKiS6_EEEEEEEEPvEELi0ELb0EE5__getB7v160006Ev, symObjAddr: 0x98D4, symBinAddr: 0x10000D0A0, symSize: 0x14 }
  - { offsetInCU: 0x183C2, offset: 0x1E234, size: 0x8, addend: 0x0, symName: __ZNSt3__117__compressed_pairIPNS_11__tree_nodeINS_12__value_typeIiNS_3mapIiNS_4pairIi10TEXT_COLOREENS_4lessIiEENS_9allocatorINS4_IKiS6_EEEEEEEEPvEENS_21__map_node_destructorINS9_ISG_EEEEE6secondB7v160006Ev, symObjAddr: 0x98E8, symBinAddr: 0x10000D0B4, symSize: 0x28 }
  - { offsetInCU: 0x183E6, offset: 0x1E258, size: 0x8, addend: 0x0, symName: __ZNSt3__122__compressed_pair_elemINS_21__map_node_destructorINS_9allocatorINS_11__tree_nodeINS_12__value_typeIiNS_3mapIiNS_4pairIi10TEXT_COLOREENS_4lessIiEENS2_INS6_IKiS8_EEEEEEEEPvEEEEEELi1ELb0EE5__getB7v160006Ev, symObjAddr: 0x9910, symBinAddr: 0x10000D0DC, symSize: 0x14 }
  - { offsetInCU: 0x1840A, offset: 0x1E27C, size: 0x8, addend: 0x0, symName: __ZNSt3__19allocatorINS_11__tree_nodeINS_12__value_typeIiNS_3mapIiNS_4pairIi10TEXT_COLOREENS_4lessIiEENS0_INS4_IKiS6_EEEEEEEEPvEEE9constructB7v160006ISC_JEEEvPT_DpOT0_, symObjAddr: 0x9924, symBinAddr: 0x10000D0F0, symSize: 0x28 }
  - { offsetInCU: 0x1844B, offset: 0x1E2BD, size: 0x8, addend: 0x0, symName: __ZNSt3__13mapIiNS_4pairIi10TEXT_COLOREENS_4lessIiEENS_9allocatorINS1_IKiS3_EEEEEC1B7v160006Ev, symObjAddr: 0x994C, symBinAddr: 0x10000D118, symSize: 0x2C }
  - { offsetInCU: 0x18473, offset: 0x1E2E5, size: 0x8, addend: 0x0, symName: __ZNSt3__13mapIiNS_4pairIi10TEXT_COLOREENS_4lessIiEENS_9allocatorINS1_IKiS3_EEEEEC2B7v160006Ev, symObjAddr: 0x9978, symBinAddr: 0x10000D144, symSize: 0x40 }
  - { offsetInCU: 0x1849B, offset: 0x1E30D, size: 0x8, addend: 0x0, symName: __ZNSt3__119__map_value_compareIiNS_12__value_typeIiNS_4pairIi10TEXT_COLOREEEENS_4lessIiEELb1EEC1B7v160006ES7_, symObjAddr: 0x99B8, symBinAddr: 0x10000D184, symSize: 0x2C }
  - { offsetInCU: 0x184D2, offset: 0x1E344, size: 0x8, addend: 0x0, symName: __ZNSt3__16__treeINS_12__value_typeIiNS_4pairIi10TEXT_COLOREEEENS_19__map_value_compareIiS5_NS_4lessIiEELb1EEENS_9allocatorIS5_EEEC1ERKS9_, symObjAddr: 0x99E4, symBinAddr: 0x10000D1B0, symSize: 0x34 }
  - { offsetInCU: 0x1850C, offset: 0x1E37E, size: 0x8, addend: 0x0, symName: __ZNSt3__119__map_value_compareIiNS_12__value_typeIiNS_4pairIi10TEXT_COLOREEEENS_4lessIiEELb1EEC2B7v160006ES7_, symObjAddr: 0x9A18, symBinAddr: 0x10000D1E4, symSize: 0x14 }
  - { offsetInCU: 0x18543, offset: 0x1E3B5, size: 0x8, addend: 0x0, symName: __ZNSt3__16__treeINS_12__value_typeIiNS_4pairIi10TEXT_COLOREEEENS_19__map_value_compareIiS5_NS_4lessIiEELb1EEENS_9allocatorIS5_EEEC2ERKS9_, symObjAddr: 0x9A2C, symBinAddr: 0x10000D1F8, symSize: 0x70 }
  - { offsetInCU: 0x1857D, offset: 0x1E3EF, size: 0x8, addend: 0x0, symName: __ZNSt3__117__compressed_pairINS_15__tree_end_nodeIPNS_16__tree_node_baseIPvEEEENS_9allocatorINS_11__tree_nodeINS_12__value_typeIiNS_4pairIi10TEXT_COLOREEEES3_EEEEEC1B7v160006ILb1EvEEv, symObjAddr: 0x9A9C, symBinAddr: 0x10000D268, symSize: 0x2C }
  - { offsetInCU: 0x185B0, offset: 0x1E422, size: 0x8, addend: 0x0, symName: __ZNSt3__117__compressed_pairImNS_19__map_value_compareIiNS_12__value_typeIiNS_4pairIi10TEXT_COLOREEEENS_4lessIiEELb1EEEEC1B7v160006IiRKS9_EEOT_OT0_, symObjAddr: 0x9AC8, symBinAddr: 0x10000D294, symSize: 0x3C }
  - { offsetInCU: 0x18606, offset: 0x1E478, size: 0x8, addend: 0x0, symName: __ZNSt3__16__treeINS_12__value_typeIiNS_4pairIi10TEXT_COLOREEEENS_19__map_value_compareIiS5_NS_4lessIiEELb1EEENS_9allocatorIS5_EEE10__end_nodeB7v160006Ev, symObjAddr: 0x9B04, symBinAddr: 0x10000D2D0, symSize: 0x2C }
  - { offsetInCU: 0x1862A, offset: 0x1E49C, size: 0x8, addend: 0x0, symName: __ZNSt3__16__treeINS_12__value_typeIiNS_4pairIi10TEXT_COLOREEEENS_19__map_value_compareIiS5_NS_4lessIiEELb1EEENS_9allocatorIS5_EEE12__begin_nodeB7v160006Ev, symObjAddr: 0x9B30, symBinAddr: 0x10000D2FC, symSize: 0x14 }
  - { offsetInCU: 0x1864E, offset: 0x1E4C0, size: 0x8, addend: 0x0, symName: __ZNSt3__117__compressed_pairINS_15__tree_end_nodeIPNS_16__tree_node_baseIPvEEEENS_9allocatorINS_11__tree_nodeINS_12__value_typeIiNS_4pairIi10TEXT_COLOREEEES3_EEEEEC2B7v160006ILb1EvEEv, symObjAddr: 0x9B44, symBinAddr: 0x10000D310, symSize: 0x34 }
  - { offsetInCU: 0x18681, offset: 0x1E4F3, size: 0x8, addend: 0x0, symName: __ZNSt3__122__compressed_pair_elemINS_9allocatorINS_11__tree_nodeINS_12__value_typeIiNS_4pairIi10TEXT_COLOREEEEPvEEEELi1ELb1EEC2B7v160006ENS_16__value_init_tagE, symObjAddr: 0x9B78, symBinAddr: 0x10000D344, symSize: 0x2C }
  - { offsetInCU: 0x186B3, offset: 0x1E525, size: 0x8, addend: 0x0, symName: __ZNSt3__19allocatorINS_11__tree_nodeINS_12__value_typeIiNS_4pairIi10TEXT_COLOREEEEPvEEEC2B7v160006Ev, symObjAddr: 0x9BA4, symBinAddr: 0x10000D370, symSize: 0x2C }
  - { offsetInCU: 0x186DB, offset: 0x1E54D, size: 0x8, addend: 0x0, symName: __ZNSt3__116__non_trivial_ifILb1ENS_9allocatorINS_11__tree_nodeINS_12__value_typeIiNS_4pairIi10TEXT_COLOREEEEPvEEEEEC2B7v160006Ev, symObjAddr: 0x9BD0, symBinAddr: 0x10000D39C, symSize: 0x14 }
  - { offsetInCU: 0x18703, offset: 0x1E575, size: 0x8, addend: 0x0, symName: __ZNSt3__117__compressed_pairImNS_19__map_value_compareIiNS_12__value_typeIiNS_4pairIi10TEXT_COLOREEEENS_4lessIiEELb1EEEEC2B7v160006IiRKS9_EEOT_OT0_, symObjAddr: 0x9BE4, symBinAddr: 0x10000D3B0, symSize: 0x44 }
  - { offsetInCU: 0x18759, offset: 0x1E5CB, size: 0x8, addend: 0x0, symName: __ZNSt3__122__compressed_pair_elemINS_19__map_value_compareIiNS_12__value_typeIiNS_4pairIi10TEXT_COLOREEEENS_4lessIiEELb1EEELi1ELb1EEC2B7v160006IRKS9_vEEOT_, symObjAddr: 0x9C28, symBinAddr: 0x10000D3F4, symSize: 0x18 }
  - { offsetInCU: 0x18799, offset: 0x1E60B, size: 0x8, addend: 0x0, symName: __ZNSt3__117__compressed_pairINS_15__tree_end_nodeIPNS_16__tree_node_baseIPvEEEENS_9allocatorINS_11__tree_nodeINS_12__value_typeIiNS_4pairIi10TEXT_COLOREEEES3_EEEEE5firstB7v160006Ev, symObjAddr: 0x9C40, symBinAddr: 0x10000D40C, symSize: 0x24 }
  - { offsetInCU: 0x187BD, offset: 0x1E62F, size: 0x8, addend: 0x0, symName: __ZNSt3__16__treeINS_12__value_typeIiNS_3mapIiNS_4pairIi10TEXT_COLOREENS_4lessIiEENS_9allocatorINS3_IKiS5_EEEEEEEENS_19__map_value_compareIiSD_S7_Lb1EEENS8_ISD_EEE4sizeB7v160006Ev, symObjAddr: 0x9FA4, symBinAddr: 0x10000D770, symSize: 0x28 }
  - { offsetInCU: 0x187E1, offset: 0x1E653, size: 0x8, addend: 0x0, symName: __ZNKSt3__116__tree_node_baseIPvE15__parent_unsafeB7v160006Ev, symObjAddr: 0x9FCC, symBinAddr: 0x10000D798, symSize: 0x18 }
  - { offsetInCU: 0x18805, offset: 0x1E677, size: 0x8, addend: 0x0, symName: __ZNSt3__116__tree_node_baseIPvE12__set_parentB7v160006EPS2_, symObjAddr: 0xA1C8, symBinAddr: 0x10000D994, symSize: 0x20 }
  - { offsetInCU: 0x18838, offset: 0x1E6AA, size: 0x8, addend: 0x0, symName: __ZNSt3__117__compressed_pairImNS_19__map_value_compareIiNS_12__value_typeIiNS_3mapIiNS_4pairIi10TEXT_COLOREENS_4lessIiEENS_9allocatorINS4_IKiS6_EEEEEEEES8_Lb1EEEE5firstB7v160006Ev, symObjAddr: 0xA1E8, symBinAddr: 0x10000D9B4, symSize: 0x24 }
  - { offsetInCU: 0x1885C, offset: 0x1E6CE, size: 0x8, addend: 0x0, symName: __ZNSt3__117__compressed_pairIPNS_11__tree_nodeINS_12__value_typeIiNS_3mapIiNS_4pairIi10TEXT_COLOREENS_4lessIiEENS_9allocatorINS4_IKiS6_EEEEEEEEPvEENS_21__map_node_destructorINS9_ISG_EEEEE5firstB7v160006Ev, symObjAddr: 0xA20C, symBinAddr: 0x10000D9D8, symSize: 0x24 }
  - { offsetInCU: 0x18880, offset: 0x1E6F2, size: 0x8, addend: 0x0, symName: __ZNSt3__122__compressed_pair_elemIPNS_11__tree_nodeINS_12__value_typeIiNS_3mapIiNS_4pairIi10TEXT_COLOREENS_4lessIiEENS_9allocatorINS4_IKiS6_EEEEEEEEPvEELi0ELb0EE5__getB7v160006Ev, symObjAddr: 0xA230, symBinAddr: 0x10000D9FC, symSize: 0x14 }
  - { offsetInCU: 0x188A4, offset: 0x1E716, size: 0x8, addend: 0x0, symName: __ZNSt3__110unique_ptrINS_11__tree_nodeINS_12__value_typeIiNS_3mapIiNS_4pairIi10TEXT_COLOREENS_4lessIiEENS_9allocatorINS4_IKiS6_EEEEEEEEPvEENS_21__map_node_destructorINS9_ISG_EEEEED2B7v160006Ev, symObjAddr: 0xA244, symBinAddr: 0x10000DA10, symSize: 0x30 }
  - { offsetInCU: 0x188CC, offset: 0x1E73E, size: 0x8, addend: 0x0, symName: __ZNSt3__110unique_ptrINS_11__tree_nodeINS_12__value_typeIiNS_3mapIiNS_4pairIi10TEXT_COLOREENS_4lessIiEENS_9allocatorINS4_IKiS6_EEEEEEEEPvEENS_21__map_node_destructorINS9_ISG_EEEEE5resetB7v160006EPSG_, symObjAddr: 0xA274, symBinAddr: 0x10000DA40, symSize: 0x78 }
  - { offsetInCU: 0x1890E, offset: 0x1E780, size: 0x8, addend: 0x0, symName: __ZNSt3__121__map_node_destructorINS_9allocatorINS_11__tree_nodeINS_12__value_typeIiNS_3mapIiNS_4pairIi10TEXT_COLOREENS_4lessIiEENS1_INS5_IKiS7_EEEEEEEEPvEEEEEclB7v160006EPSG_, symObjAddr: 0xA2EC, symBinAddr: 0x10000DAB8, symSize: 0xE4 }
  - { offsetInCU: 0x18941, offset: 0x1E7B3, size: 0x8, addend: 0x0, symName: __ZNSt3__116allocator_traitsINS_9allocatorINS_11__tree_nodeINS_12__value_typeIiNS_3mapIiNS_4pairIi10TEXT_COLOREENS_4lessIiEENS1_INS5_IKiS7_EEEEEEEEPvEEEEE7destroyB7v160006ISD_vvEEvRSH_PT_, symObjAddr: 0xA3D0, symBinAddr: 0x10000DB9C, symSize: 0x28 }
  - { offsetInCU: 0x1897B, offset: 0x1E7ED, size: 0x8, addend: 0x0, symName: __ZNSt3__116allocator_traitsINS_9allocatorINS_11__tree_nodeINS_12__value_typeIiNS_3mapIiNS_4pairIi10TEXT_COLOREENS_4lessIiEENS1_INS5_IKiS7_EEEEEEEEPvEEEEE7destroyB7v160006ISA_vvEEvRSH_PT_, symObjAddr: 0xA3F8, symBinAddr: 0x10000DBC4, symSize: 0x14 }
  - { offsetInCU: 0x189B5, offset: 0x1E827, size: 0x8, addend: 0x0, symName: __ZNSt3__16__treeINS_12__value_typeIiNS_4pairIi10TEXT_COLOREEEENS_19__map_value_compareIiS5_NS_4lessIiEELb1EEENS_9allocatorIS5_EEE4findIiEENS_15__tree_iteratorIS5_PNS_11__tree_nodeIS5_PvEElEERKT_, symObjAddr: 0xA40C, symBinAddr: 0x10000DBD8, symSize: 0xF8 }
  - { offsetInCU: 0x18A03, offset: 0x1E875, size: 0x8, addend: 0x0, symName: __ZNSt3__114__map_iteratorINS_15__tree_iteratorINS_12__value_typeIiNS_4pairIi10TEXT_COLOREEEEPNS_11__tree_nodeIS6_PvEElEEEC1B7v160006ESB_, symObjAddr: 0xA504, symBinAddr: 0x10000DCD0, symSize: 0x34 }
  - { offsetInCU: 0x18A3A, offset: 0x1E8AC, size: 0x8, addend: 0x0, symName: __ZNSt3__16__treeINS_12__value_typeIiNS_4pairIi10TEXT_COLOREEEENS_19__map_value_compareIiS5_NS_4lessIiEELb1EEENS_9allocatorIS5_EEE13__lower_boundIiEENS_15__tree_iteratorIS5_PNS_11__tree_nodeIS5_PvEElEERKT_SI_PNS_15__tree_end_nodeIPNS_16__tree_node_baseISG_EEEE, symObjAddr: 0xA538, symBinAddr: 0x10000DD04, symSize: 0xA4 }
  - { offsetInCU: 0x18A97, offset: 0x1E909, size: 0x8, addend: 0x0, symName: __ZNSt3__16__treeINS_12__value_typeIiNS_4pairIi10TEXT_COLOREEEENS_19__map_value_compareIiS5_NS_4lessIiEELb1EEENS_9allocatorIS5_EEE3endB7v160006Ev, symObjAddr: 0xA610, symBinAddr: 0x10000DDDC, symSize: 0x34 }
  - { offsetInCU: 0x18ABB, offset: 0x1E92D, size: 0x8, addend: 0x0, symName: __ZNSt3__16__treeINS_12__value_typeIiNS_4pairIi10TEXT_COLOREEEENS_19__map_value_compareIiS5_NS_4lessIiEELb1EEENS_9allocatorIS5_EEE10value_compB7v160006Ev, symObjAddr: 0xA644, symBinAddr: 0x10000DE10, symSize: 0x28 }
  - { offsetInCU: 0x18ADF, offset: 0x1E951, size: 0x8, addend: 0x0, symName: __ZNKSt3__119__map_value_compareIiNS_12__value_typeIiNS_4pairIi10TEXT_COLOREEEENS_4lessIiEELb1EEclB7v160006ERKiRKS5_, symObjAddr: 0xA66C, symBinAddr: 0x10000DE38, symSize: 0x50 }
  - { offsetInCU: 0x18B21, offset: 0x1E993, size: 0x8, addend: 0x0, symName: __ZNKSt3__115__tree_iteratorINS_12__value_typeIiNS_4pairIi10TEXT_COLOREEEEPNS_11__tree_nodeIS5_PvEElEdeB7v160006Ev, symObjAddr: 0xA6BC, symBinAddr: 0x10000DE88, symSize: 0x28 }
  - { offsetInCU: 0x18B45, offset: 0x1E9B7, size: 0x8, addend: 0x0, symName: __ZNKSt3__119__map_value_compareIiNS_12__value_typeIiNS_4pairIi10TEXT_COLOREEEENS_4lessIiEELb1EEclB7v160006ERKS5_RKi, symObjAddr: 0xA6E4, symBinAddr: 0x10000DEB0, symSize: 0x48 }
  - { offsetInCU: 0x18B87, offset: 0x1E9F9, size: 0x8, addend: 0x0, symName: __ZNSt3__115__tree_iteratorINS_12__value_typeIiNS_4pairIi10TEXT_COLOREEEEPNS_11__tree_nodeIS5_PvEElEC1B7v160006EPNS_15__tree_end_nodeIPNS_16__tree_node_baseIS7_EEEE, symObjAddr: 0xA72C, symBinAddr: 0x10000DEF8, symSize: 0x34 }
  - { offsetInCU: 0x18BBE, offset: 0x1EA30, size: 0x8, addend: 0x0, symName: __ZNKSt3__112__value_typeIiNS_4pairIi10TEXT_COLOREEE11__get_valueB7v160006Ev, symObjAddr: 0xA760, symBinAddr: 0x10000DF2C, symSize: 0x14 }
  - { offsetInCU: 0x18BE2, offset: 0x1EA54, size: 0x8, addend: 0x0, symName: __ZNSt3__115__tree_iteratorINS_12__value_typeIiNS_4pairIi10TEXT_COLOREEEEPNS_11__tree_nodeIS5_PvEElEC2B7v160006EPNS_15__tree_end_nodeIPNS_16__tree_node_baseIS7_EEEE, symObjAddr: 0xA774, symBinAddr: 0x10000DF40, symSize: 0x20 }
  - { offsetInCU: 0x18C19, offset: 0x1EA8B, size: 0x8, addend: 0x0, symName: __ZNSt3__117__compressed_pairImNS_19__map_value_compareIiNS_12__value_typeIiNS_4pairIi10TEXT_COLOREEEENS_4lessIiEELb1EEEE6secondB7v160006Ev, symObjAddr: 0xA7C4, symBinAddr: 0x10000DF90, symSize: 0x24 }
  - { offsetInCU: 0x18C3D, offset: 0x1EAAF, size: 0x8, addend: 0x0, symName: __ZNSt3__122__compressed_pair_elemINS_19__map_value_compareIiNS_12__value_typeIiNS_4pairIi10TEXT_COLOREEEENS_4lessIiEELb1EEELi1ELb1EE5__getB7v160006Ev, symObjAddr: 0xA7E8, symBinAddr: 0x10000DFB4, symSize: 0x14 }
  - { offsetInCU: 0x18C61, offset: 0x1EAD3, size: 0x8, addend: 0x0, symName: __ZNKSt3__115__tree_iteratorINS_12__value_typeIiNS_4pairIi10TEXT_COLOREEEEPNS_11__tree_nodeIS5_PvEElE8__get_npB7v160006Ev, symObjAddr: 0xA7FC, symBinAddr: 0x10000DFC8, symSize: 0x18 }
  - { offsetInCU: 0x18C85, offset: 0x1EAF7, size: 0x8, addend: 0x0, symName: __ZNSt3__114__map_iteratorINS_15__tree_iteratorINS_12__value_typeIiNS_4pairIi10TEXT_COLOREEEEPNS_11__tree_nodeIS6_PvEElEEEC2B7v160006ESB_, symObjAddr: 0xA814, symBinAddr: 0x10000DFE0, symSize: 0x20 }
  - { offsetInCU: 0x18CBC, offset: 0x1EB2E, size: 0x8, addend: 0x0, symName: __ZNSt3__114pointer_traitsIPNS_4pairIKiNS1_Ii10TEXT_COLOREEEEE10pointer_toB7v160006ERS5_, symObjAddr: 0xA834, symBinAddr: 0x10000E000, symSize: 0x14 }
  - { offsetInCU: 0x18CDE, offset: 0x1EB50, size: 0x8, addend: 0x0, symName: __ZNKSt3__115__tree_iteratorINS_12__value_typeIiNS_4pairIi10TEXT_COLOREEEEPNS_11__tree_nodeIS5_PvEElEptB7v160006Ev, symObjAddr: 0xA848, symBinAddr: 0x10000E014, symSize: 0x2C }
  - { offsetInCU: 0x18D02, offset: 0x1EB74, size: 0x8, addend: 0x0, symName: __ZNSt3__114pointer_traitsIPNS_12__value_typeIiNS_4pairIi10TEXT_COLOREEEEE10pointer_toB7v160006ERS5_, symObjAddr: 0xA874, symBinAddr: 0x10000E040, symSize: 0x14 }
  - { offsetInCU: 0x18D24, offset: 0x1EB96, size: 0x8, addend: 0x0, symName: __ZNSt3__19allocatorIcEC1B7v160006Ev, symObjAddr: 0xA888, symBinAddr: 0x10000E054, symSize: 0x2C }
  - { offsetInCU: 0x18D4C, offset: 0x1EBBE, size: 0x8, addend: 0x0, symName: __ZNSt3__14pairIi10TEXT_COLOREC2B7v160006ERKiRKS1_, symObjAddr: 0xA8B4, symBinAddr: 0x10000E080, symSize: 0x34 }
  - { offsetInCU: 0x18D90, offset: 0x1EC02, size: 0x8, addend: 0x0, symName: __ZNSt3__16__treeINS_12__value_typeIiNS_4pairIi10TEXT_COLOREEEENS_19__map_value_compareIiS5_NS_4lessIiEELb1EEENS_9allocatorIS5_EEE12__find_equalIiEERPNS_16__tree_node_baseIPvEERPNS_15__tree_end_nodeISH_EERKT_, symObjAddr: 0xA8E8, symBinAddr: 0x10000E0B4, symSize: 0x184 }
  - { offsetInCU: 0x18DFC, offset: 0x1EC6E, size: 0x8, addend: 0x0, symName: __ZNSt3__13mapIiNS_4pairIi10TEXT_COLOREENS_4lessIiEENS_9allocatorINS1_IKiS3_EEEEE25__construct_node_with_keyERS7_, symObjAddr: 0xAA6C, symBinAddr: 0x10000E238, symSize: 0x144 }
  - { offsetInCU: 0x18E51, offset: 0x1ECC3, size: 0x8, addend: 0x0, symName: __ZNSt3__16__treeINS_12__value_typeIiNS_4pairIi10TEXT_COLOREEEENS_19__map_value_compareIiS5_NS_4lessIiEELb1EEENS_9allocatorIS5_EEE16__insert_node_atEPNS_15__tree_end_nodeIPNS_16__tree_node_baseIPvEEEERSH_SH_, symObjAddr: 0xABB0, symBinAddr: 0x10000E37C, symSize: 0xCC }
  - { offsetInCU: 0x18EA5, offset: 0x1ED17, size: 0x8, addend: 0x0, symName: __ZNKSt3__110unique_ptrINS_11__tree_nodeINS_12__value_typeIiNS_4pairIi10TEXT_COLOREEEEPvEENS_21__map_node_destructorINS_9allocatorIS8_EEEEE3getB7v160006Ev, symObjAddr: 0xAC7C, symBinAddr: 0x10000E448, symSize: 0x28 }
  - { offsetInCU: 0x18EC9, offset: 0x1ED3B, size: 0x8, addend: 0x0, symName: __ZNSt3__110unique_ptrINS_11__tree_nodeINS_12__value_typeIiNS_4pairIi10TEXT_COLOREEEEPvEENS_21__map_node_destructorINS_9allocatorIS8_EEEEE7releaseB7v160006Ev, symObjAddr: 0xACA4, symBinAddr: 0x10000E470, symSize: 0x44 }
  - { offsetInCU: 0x18EFC, offset: 0x1ED6E, size: 0x8, addend: 0x0, symName: __ZNSt3__110unique_ptrINS_11__tree_nodeINS_12__value_typeIiNS_4pairIi10TEXT_COLOREEEEPvEENS_21__map_node_destructorINS_9allocatorIS8_EEEEED1B7v160006Ev, symObjAddr: 0xACE8, symBinAddr: 0x10000E4B4, symSize: 0x2C }
  - { offsetInCU: 0x18F24, offset: 0x1ED96, size: 0x8, addend: 0x0, symName: __ZNKSt3__16__treeINS_12__value_typeIiNS_4pairIi10TEXT_COLOREEEENS_19__map_value_compareIiS5_NS_4lessIiEELb1EEENS_9allocatorIS5_EEE10__root_ptrEv, symObjAddr: 0xAD14, symBinAddr: 0x10000E4E0, symSize: 0x24 }
  - { offsetInCU: 0x18F48, offset: 0x1EDBA, size: 0x8, addend: 0x0, symName: __ZNSt3__116allocator_traitsINS_9allocatorINS_11__tree_nodeINS_12__value_typeIiNS_4pairIi10TEXT_COLOREEEEPvEEEEE8allocateB7v160006ERSA_m, symObjAddr: 0xAD38, symBinAddr: 0x10000E504, symSize: 0x2C }
  - { offsetInCU: 0x18F7A, offset: 0x1EDEC, size: 0x8, addend: 0x0, symName: __ZNSt3__121__map_node_destructorINS_9allocatorINS_11__tree_nodeINS_12__value_typeIiNS_4pairIi10TEXT_COLOREEEEPvEEEEEC1B7v160006ERSA_, symObjAddr: 0xAD64, symBinAddr: 0x10000E530, symSize: 0x34 }
  - { offsetInCU: 0x18FB6, offset: 0x1EE28, size: 0x8, addend: 0x0, symName: __ZNSt3__110unique_ptrINS_11__tree_nodeINS_12__value_typeIiNS_4pairIi10TEXT_COLOREEEEPvEENS_21__map_node_destructorINS_9allocatorIS8_EEEEEC1B7v160006ILb1EvEEPS8_NS_16__dependent_typeINS_27__unique_ptr_deleter_sfinaeISC_EEXT_EE20__good_rval_ref_typeE, symObjAddr: 0xAD98, symBinAddr: 0x10000E564, symSize: 0x3C }
  - { offsetInCU: 0x19005, offset: 0x1EE77, size: 0x8, addend: 0x0, symName: __ZNSt3__116allocator_traitsINS_9allocatorINS_11__tree_nodeINS_12__value_typeIiNS_4pairIi10TEXT_COLOREEEEPvEEEEE9constructB7v160006IKiJRSD_EvEEvRSA_PT_DpOT0_, symObjAddr: 0xADD4, symBinAddr: 0x10000E5A0, symSize: 0x34 }
  - { offsetInCU: 0x1905B, offset: 0x1EECD, size: 0x8, addend: 0x0, symName: __ZNKSt3__110unique_ptrINS_11__tree_nodeINS_12__value_typeIiNS_4pairIi10TEXT_COLOREEEEPvEENS_21__map_node_destructorINS_9allocatorIS8_EEEEEptB7v160006Ev, symObjAddr: 0xAE08, symBinAddr: 0x10000E5D4, symSize: 0x28 }
  - { offsetInCU: 0x1907F, offset: 0x1EEF1, size: 0x8, addend: 0x0, symName: __ZNSt3__110unique_ptrINS_11__tree_nodeINS_12__value_typeIiNS_4pairIi10TEXT_COLOREEEEPvEENS_21__map_node_destructorINS_9allocatorIS8_EEEEE11get_deleterB7v160006Ev, symObjAddr: 0xAE30, symBinAddr: 0x10000E5FC, symSize: 0x24 }
  - { offsetInCU: 0x190A8, offset: 0x1EF1A, size: 0x8, addend: 0x0, symName: __ZNSt3__116allocator_traitsINS_9allocatorINS_11__tree_nodeINS_12__value_typeIiNS_4pairIi10TEXT_COLOREEEEPvEEEEE9constructB7v160006IS6_JEvEEvRSA_PT_DpOT0_, symObjAddr: 0xAE54, symBinAddr: 0x10000E620, symSize: 0x2C }
  - { offsetInCU: 0x190EA, offset: 0x1EF5C, size: 0x8, addend: 0x0, symName: __ZNSt3__19allocatorINS_11__tree_nodeINS_12__value_typeIiNS_4pairIi10TEXT_COLOREEEEPvEEE8allocateB7v160006Em, symObjAddr: 0xAE80, symBinAddr: 0x10000E64C, symSize: 0x8C }
  - { offsetInCU: 0x19126, offset: 0x1EF98, size: 0x8, addend: 0x0, symName: __ZNSt3__116allocator_traitsINS_9allocatorINS_11__tree_nodeINS_12__value_typeIiNS_4pairIi10TEXT_COLOREEEEPvEEEEE8max_sizeB7v160006ISA_vEEmRKSA_, symObjAddr: 0xAF0C, symBinAddr: 0x10000E6D8, symSize: 0x24 }
  - { offsetInCU: 0x19153, offset: 0x1EFC5, size: 0x8, addend: 0x0, symName: __ZNKSt3__19allocatorINS_11__tree_nodeINS_12__value_typeIiNS_4pairIi10TEXT_COLOREEEEPvEEE8max_sizeB7v160006Ev, symObjAddr: 0xAF30, symBinAddr: 0x10000E6FC, symSize: 0x18 }
  - { offsetInCU: 0x19177, offset: 0x1EFE9, size: 0x8, addend: 0x0, symName: __ZNSt3__121__map_node_destructorINS_9allocatorINS_11__tree_nodeINS_12__value_typeIiNS_4pairIi10TEXT_COLOREEEEPvEEEEEC2B7v160006ERSA_, symObjAddr: 0xAF48, symBinAddr: 0x10000E714, symSize: 0x28 }
  - { offsetInCU: 0x191AE, offset: 0x1F020, size: 0x8, addend: 0x0, symName: __ZNSt3__110unique_ptrINS_11__tree_nodeINS_12__value_typeIiNS_4pairIi10TEXT_COLOREEEEPvEENS_21__map_node_destructorINS_9allocatorIS8_EEEEEC2B7v160006ILb1EvEEPS8_NS_16__dependent_typeINS_27__unique_ptr_deleter_sfinaeISC_EEXT_EE20__good_rval_ref_typeE, symObjAddr: 0xAF70, symBinAddr: 0x10000E73C, symSize: 0x5C }
  - { offsetInCU: 0x191FD, offset: 0x1F06F, size: 0x8, addend: 0x0, symName: __ZNSt3__117__compressed_pairIPNS_11__tree_nodeINS_12__value_typeIiNS_4pairIi10TEXT_COLOREEEEPvEENS_21__map_node_destructorINS_9allocatorIS8_EEEEEC1B7v160006IRS9_SD_EEOT_OT0_, symObjAddr: 0xAFCC, symBinAddr: 0x10000E798, symSize: 0x3C }
  - { offsetInCU: 0x19253, offset: 0x1F0C5, size: 0x8, addend: 0x0, symName: __ZNSt3__117__compressed_pairIPNS_11__tree_nodeINS_12__value_typeIiNS_4pairIi10TEXT_COLOREEEEPvEENS_21__map_node_destructorINS_9allocatorIS8_EEEEEC2B7v160006IRS9_SD_EEOT_OT0_, symObjAddr: 0xB008, symBinAddr: 0x10000E7D4, symSize: 0x48 }
  - { offsetInCU: 0x192A9, offset: 0x1F11B, size: 0x8, addend: 0x0, symName: __ZNSt3__122__compressed_pair_elemIPNS_11__tree_nodeINS_12__value_typeIiNS_4pairIi10TEXT_COLOREEEEPvEELi0ELb0EEC2B7v160006IRS9_vEEOT_, symObjAddr: 0xB050, symBinAddr: 0x10000E81C, symSize: 0x24 }
  - { offsetInCU: 0x192E9, offset: 0x1F15B, size: 0x8, addend: 0x0, symName: __ZNSt3__122__compressed_pair_elemINS_21__map_node_destructorINS_9allocatorINS_11__tree_nodeINS_12__value_typeIiNS_4pairIi10TEXT_COLOREEEEPvEEEEEELi1ELb0EEC2B7v160006ISC_vEEOT_, symObjAddr: 0xB074, symBinAddr: 0x10000E840, symSize: 0x24 }
  - { offsetInCU: 0x19329, offset: 0x1F19B, size: 0x8, addend: 0x0, symName: __ZNSt3__19allocatorINS_11__tree_nodeINS_12__value_typeIiNS_4pairIi10TEXT_COLOREEEEPvEEE9constructB7v160006IKiJRSB_EEEvPT_DpOT0_, symObjAddr: 0xB098, symBinAddr: 0x10000E864, symSize: 0x28 }
  - { offsetInCU: 0x1937D, offset: 0x1F1EF, size: 0x8, addend: 0x0, symName: __ZNKSt3__117__compressed_pairIPNS_11__tree_nodeINS_12__value_typeIiNS_4pairIi10TEXT_COLOREEEEPvEENS_21__map_node_destructorINS_9allocatorIS8_EEEEE5firstB7v160006Ev, symObjAddr: 0xB0C0, symBinAddr: 0x10000E88C, symSize: 0x24 }
  - { offsetInCU: 0x193A1, offset: 0x1F213, size: 0x8, addend: 0x0, symName: __ZNKSt3__122__compressed_pair_elemIPNS_11__tree_nodeINS_12__value_typeIiNS_4pairIi10TEXT_COLOREEEEPvEELi0ELb0EE5__getB7v160006Ev, symObjAddr: 0xB0E4, symBinAddr: 0x10000E8B0, symSize: 0x14 }
  - { offsetInCU: 0x193C5, offset: 0x1F237, size: 0x8, addend: 0x0, symName: __ZNSt3__117__compressed_pairIPNS_11__tree_nodeINS_12__value_typeIiNS_4pairIi10TEXT_COLOREEEEPvEENS_21__map_node_destructorINS_9allocatorIS8_EEEEE6secondB7v160006Ev, symObjAddr: 0xB0F8, symBinAddr: 0x10000E8C4, symSize: 0x28 }
  - { offsetInCU: 0x193E9, offset: 0x1F25B, size: 0x8, addend: 0x0, symName: __ZNSt3__122__compressed_pair_elemINS_21__map_node_destructorINS_9allocatorINS_11__tree_nodeINS_12__value_typeIiNS_4pairIi10TEXT_COLOREEEEPvEEEEEELi1ELb0EE5__getB7v160006Ev, symObjAddr: 0xB120, symBinAddr: 0x10000E8EC, symSize: 0x14 }
  - { offsetInCU: 0x1940D, offset: 0x1F27F, size: 0x8, addend: 0x0, symName: __ZNSt3__19allocatorINS_11__tree_nodeINS_12__value_typeIiNS_4pairIi10TEXT_COLOREEEEPvEEE9constructB7v160006IS5_JEEEvPT_DpOT0_, symObjAddr: 0xB134, symBinAddr: 0x10000E900, symSize: 0x28 }
  - { offsetInCU: 0x1944E, offset: 0x1F2C0, size: 0x8, addend: 0x0, symName: __ZNSt3__14pairIi10TEXT_COLOREC1B7v160006Ev, symObjAddr: 0xB15C, symBinAddr: 0x10000E928, symSize: 0x2C }
  - { offsetInCU: 0x19476, offset: 0x1F2E8, size: 0x8, addend: 0x0, symName: __ZNSt3__14pairIi10TEXT_COLOREC2B7v160006Ev, symObjAddr: 0xB188, symBinAddr: 0x10000E954, symSize: 0x1C }
  - { offsetInCU: 0x1949E, offset: 0x1F310, size: 0x8, addend: 0x0, symName: __ZNSt3__16__treeINS_12__value_typeIiNS_4pairIi10TEXT_COLOREEEENS_19__map_value_compareIiS5_NS_4lessIiEELb1EEENS_9allocatorIS5_EEE4sizeB7v160006Ev, symObjAddr: 0xB1A4, symBinAddr: 0x10000E970, symSize: 0x28 }
  - { offsetInCU: 0x194C2, offset: 0x1F334, size: 0x8, addend: 0x0, symName: __ZNSt3__117__compressed_pairImNS_19__map_value_compareIiNS_12__value_typeIiNS_4pairIi10TEXT_COLOREEEENS_4lessIiEELb1EEEE5firstB7v160006Ev, symObjAddr: 0xB1CC, symBinAddr: 0x10000E998, symSize: 0x24 }
  - { offsetInCU: 0x194E6, offset: 0x1F358, size: 0x8, addend: 0x0, symName: __ZNSt3__117__compressed_pairIPNS_11__tree_nodeINS_12__value_typeIiNS_4pairIi10TEXT_COLOREEEEPvEENS_21__map_node_destructorINS_9allocatorIS8_EEEEE5firstB7v160006Ev, symObjAddr: 0xB1F0, symBinAddr: 0x10000E9BC, symSize: 0x24 }
  - { offsetInCU: 0x1950A, offset: 0x1F37C, size: 0x8, addend: 0x0, symName: __ZNSt3__122__compressed_pair_elemIPNS_11__tree_nodeINS_12__value_typeIiNS_4pairIi10TEXT_COLOREEEEPvEELi0ELb0EE5__getB7v160006Ev, symObjAddr: 0xB214, symBinAddr: 0x10000E9E0, symSize: 0x14 }
  - { offsetInCU: 0x1952E, offset: 0x1F3A0, size: 0x8, addend: 0x0, symName: __ZNSt3__110unique_ptrINS_11__tree_nodeINS_12__value_typeIiNS_4pairIi10TEXT_COLOREEEEPvEENS_21__map_node_destructorINS_9allocatorIS8_EEEEED2B7v160006Ev, symObjAddr: 0xB228, symBinAddr: 0x10000E9F4, symSize: 0x30 }
  - { offsetInCU: 0x19556, offset: 0x1F3C8, size: 0x8, addend: 0x0, symName: __ZNSt3__110unique_ptrINS_11__tree_nodeINS_12__value_typeIiNS_4pairIi10TEXT_COLOREEEEPvEENS_21__map_node_destructorINS_9allocatorIS8_EEEEE5resetB7v160006EPS8_, symObjAddr: 0xB258, symBinAddr: 0x10000EA24, symSize: 0x78 }
  - { offsetInCU: 0x19598, offset: 0x1F40A, size: 0x8, addend: 0x0, symName: __ZNSt3__121__map_node_destructorINS_9allocatorINS_11__tree_nodeINS_12__value_typeIiNS_4pairIi10TEXT_COLOREEEEPvEEEEEclB7v160006EPS9_, symObjAddr: 0xB2D0, symBinAddr: 0x10000EA9C, symSize: 0xE4 }
  - { offsetInCU: 0x195CB, offset: 0x1F43D, size: 0x8, addend: 0x0, symName: __ZNSt3__116allocator_traitsINS_9allocatorINS_11__tree_nodeINS_12__value_typeIiNS_4pairIi10TEXT_COLOREEEEPvEEEEE7destroyB7v160006IS6_vvEEvRSA_PT_, symObjAddr: 0xB3B4, symBinAddr: 0x10000EB80, symSize: 0x14 }
  - { offsetInCU: 0x19605, offset: 0x1F477, size: 0x8, addend: 0x0, symName: __ZNSt3__116allocator_traitsINS_9allocatorINS_11__tree_nodeINS_12__value_typeIiNS_4pairIi10TEXT_COLOREEEEPvEEEEE7destroyB7v160006IKivvEEvRSA_PT_, symObjAddr: 0xB3C8, symBinAddr: 0x10000EB94, symSize: 0x14 }
  - { offsetInCU: 0x1963F, offset: 0x1F4B1, size: 0x8, addend: 0x0, symName: __ZNSt3__16__treeINS_12__value_typeIiNS_4pairIi10TEXT_COLOREEEENS_19__map_value_compareIiS5_NS_4lessIiEELb1EEENS_9allocatorIS5_EEE14__erase_uniqueIiEEmRKT_, symObjAddr: 0xB3DC, symBinAddr: 0x10000EBA8, symSize: 0xA0 }
  - { offsetInCU: 0x1968D, offset: 0x1F4FF, size: 0x8, addend: 0x0, symName: __ZNSt3__16__treeINS_12__value_typeIiNS_4pairIi10TEXT_COLOREEEENS_19__map_value_compareIiS5_NS_4lessIiEELb1EEENS_9allocatorIS5_EEE5eraseENS_21__tree_const_iteratorIS5_PNS_11__tree_nodeIS5_PvEElEE, symObjAddr: 0xB47C, symBinAddr: 0x10000EC48, symSize: 0x98 }
  - { offsetInCU: 0x196F0, offset: 0x1F562, size: 0x8, addend: 0x0, symName: __ZNSt3__121__tree_const_iteratorINS_12__value_typeIiNS_4pairIi10TEXT_COLOREEEEPNS_11__tree_nodeIS5_PvEElEC1B7v160006ENS_15__tree_iteratorIS5_S9_lEE, symObjAddr: 0xB514, symBinAddr: 0x10000ECE0, symSize: 0x34 }
  - { offsetInCU: 0x19727, offset: 0x1F599, size: 0x8, addend: 0x0, symName: __ZNKSt3__121__tree_const_iteratorINS_12__value_typeIiNS_4pairIi10TEXT_COLOREEEEPNS_11__tree_nodeIS5_PvEElE8__get_npB7v160006Ev, symObjAddr: 0xB548, symBinAddr: 0x10000ED14, symSize: 0x18 }
  - { offsetInCU: 0x1974B, offset: 0x1F5BD, size: 0x8, addend: 0x0, symName: __ZNSt3__16__treeINS_12__value_typeIiNS_4pairIi10TEXT_COLOREEEENS_19__map_value_compareIiS5_NS_4lessIiEELb1EEENS_9allocatorIS5_EEE21__remove_node_pointerEPNS_11__tree_nodeIS5_PvEE, symObjAddr: 0xB560, symBinAddr: 0x10000ED2C, symSize: 0xC8 }
  - { offsetInCU: 0x19790, offset: 0x1F602, size: 0x8, addend: 0x0, symName: __ZNKSt3__121__tree_const_iteratorINS_12__value_typeIiNS_4pairIi10TEXT_COLOREEEEPNS_11__tree_nodeIS5_PvEElEdeB7v160006Ev, symObjAddr: 0xB628, symBinAddr: 0x10000EDF4, symSize: 0x28 }
  - { offsetInCU: 0x197B4, offset: 0x1F626, size: 0x8, addend: 0x0, symName: __ZNSt3__115__tree_iteratorINS_12__value_typeIiNS_4pairIi10TEXT_COLOREEEEPNS_11__tree_nodeIS5_PvEElEC1B7v160006ES9_, symObjAddr: 0xB650, symBinAddr: 0x10000EE1C, symSize: 0x34 }
  - { offsetInCU: 0x197EB, offset: 0x1F65D, size: 0x8, addend: 0x0, symName: __ZNSt3__115__tree_iteratorINS_12__value_typeIiNS_4pairIi10TEXT_COLOREEEEPNS_11__tree_nodeIS5_PvEElEppB7v160006Ev, symObjAddr: 0xB684, symBinAddr: 0x10000EE50, symSize: 0x38 }
  - { offsetInCU: 0x1980F, offset: 0x1F681, size: 0x8, addend: 0x0, symName: __ZNSt3__115__tree_iteratorINS_12__value_typeIiNS_4pairIi10TEXT_COLOREEEEPNS_11__tree_nodeIS5_PvEElEC2B7v160006ES9_, symObjAddr: 0xBD9C, symBinAddr: 0x10000F568, symSize: 0x20 }
  - { offsetInCU: 0x19846, offset: 0x1F6B8, size: 0x8, addend: 0x0, symName: __ZNSt3__121__tree_const_iteratorINS_12__value_typeIiNS_4pairIi10TEXT_COLOREEEEPNS_11__tree_nodeIS5_PvEElEC2B7v160006ENS_15__tree_iteratorIS5_S9_lEE, symObjAddr: 0xBEFC, symBinAddr: 0x10000F6C8, symSize: 0x20 }
  - { offsetInCU: 0x7CAF, offset: 0x27630, size: 0x8, addend: 0x0, symName: __ZNSt3__119__allocate_at_leastB7v160006INS_9allocatorIP10ECObserverEEEENS_19__allocation_resultINS_16allocator_traitsIT_E7pointerEEERS7_m, symObjAddr: 0x1E1C, symBinAddr: 0x100011030, symSize: 0x40 }
  - { offsetInCU: 0x7CF2, offset: 0x27673, size: 0x8, addend: 0x0, symName: __ZNSt3__142__uninitialized_allocator_move_if_noexceptB7v160006INS_9allocatorIP10ECObserverEENS_16reverse_iteratorIPS3_EES7_S3_vEET1_RT_T0_SB_S8_, symObjAddr: 0x215C, symBinAddr: 0x100011210, symSize: 0xE8 }
  - { offsetInCU: 0x7D70, offset: 0x276F1, size: 0x8, addend: 0x0, symName: __ZNSt3__14swapB7v160006IPP10ECObserverEEvRT_S5_, symObjAddr: 0x2290, symBinAddr: 0x100011344, symSize: 0x3C }
  - { offsetInCU: 0x7DC2, offset: 0x27743, size: 0x8, addend: 0x0, symName: __ZNSt3__125__debug_db_invalidate_allB7v160006INS_6vectorIP10ECObserverNS_9allocatorIS3_EEEEEEvPT_, symObjAddr: 0x2378, symBinAddr: 0x10001142C, symSize: 0x10 }
  - { offsetInCU: 0x7DF3, offset: 0x27774, size: 0x8, addend: 0x0, symName: __ZNSt3__1neB7v160006IPP10ECObserverS3_EEbRKNS_16reverse_iteratorIT_EERKNS4_IT0_EE, symObjAddr: 0x23D0, symBinAddr: 0x10001143C, symSize: 0x48 }
  - { offsetInCU: 0x7E66, offset: 0x277E7, size: 0x8, addend: 0x0, symName: __ZNSt3__114__construct_atB7v160006IP10ECObserverJS2_EPS2_EEPT_S5_DpOT0_, symObjAddr: 0x2418, symBinAddr: 0x100011484, symSize: 0x2C }
  - { offsetInCU: 0x7ED9, offset: 0x2785A, size: 0x8, addend: 0x0, symName: __ZNSt3__112__to_addressB7v160006INS_16reverse_iteratorIPP10ECObserverEEvEENS_5decayIDTclsr19__to_address_helperIT_EE6__callclsr3stdE7declvalIRKS7_EEEEE4typeES9_, symObjAddr: 0x2444, symBinAddr: 0x1000114B0, symSize: 0x24 }
  - { offsetInCU: 0x7F0F, offset: 0x27890, size: 0x8, addend: 0x0, symName: __ZNSt3__14moveB7v160006INS_16reverse_iteratorIPP10ECObserverEES5_EET0_T_S7_S6_, symObjAddr: 0x24B0, symBinAddr: 0x10001151C, symSize: 0x78 }
  - { offsetInCU: 0x7F93, offset: 0x27914, size: 0x8, addend: 0x0, symName: __ZNSt3__16__moveB7v160006INS_17_ClassicAlgPolicyENS_16reverse_iteratorIPP10ECObserverEES6_S6_EENS_4pairIT0_T2_EES8_T1_S9_, symObjAddr: 0x2598, symBinAddr: 0x100011604, symSize: 0x64 }
  - { offsetInCU: 0x7FFF, offset: 0x27980, size: 0x8, addend: 0x0, symName: __ZNSt3__123__dispatch_copy_or_moveB7v160006INS_17_ClassicAlgPolicyENS_11__move_loopIS1_EENS_14__move_trivialENS_16reverse_iteratorIPP10ECObserverEES9_S9_EENS_4pairIT2_T4_EESB_T3_SC_, symObjAddr: 0x25FC, symBinAddr: 0x100011668, symSize: 0x7C }
  - { offsetInCU: 0x807D, offset: 0x279FE, size: 0x8, addend: 0x0, symName: __ZNSt3__121__unwrap_and_dispatchB7v160006INS_10__overloadINS_11__move_loopINS_17_ClassicAlgPolicyEEENS_14__move_trivialEEENS_16reverse_iteratorIPP10ECObserverEESB_SB_Li0EEENS_4pairIT0_T2_EESD_T1_SE_, symObjAddr: 0x2678, symBinAddr: 0x1000116E4, symSize: 0x12C }
  - { offsetInCU: 0x810E, offset: 0x27A8F, size: 0x8, addend: 0x0, symName: __ZNSt3__114__unwrap_rangeB7v160006INS_16reverse_iteratorIPP10ECObserverEES5_EENS_4pairIT0_S7_EET_S9_, symObjAddr: 0x27A4, symBinAddr: 0x100011810, symSize: 0x84 }
  - { offsetInCU: 0x8298, offset: 0x27C19, size: 0x8, addend: 0x0, symName: __ZNSt3__113__unwrap_iterB7v160006INS_16reverse_iteratorIPP10ECObserverEENS_18__unwrap_iter_implIS5_Lb0EEELi0EEEDTclsrT0_8__unwrapclsr3stdE7declvalIT_EEEES9_, symObjAddr: 0x28C8, symBinAddr: 0x100011934, symSize: 0x44 }
  - { offsetInCU: 0x82DD, offset: 0x27C5E, size: 0x8, addend: 0x0, symName: __ZNSt3__19make_pairB7v160006INS_16reverse_iteratorIPP10ECObserverEES5_EENS_4pairINS_18__unwrap_ref_decayIT_E4typeENS7_IT0_E4typeEEEOS8_OSB_, symObjAddr: 0x290C, symBinAddr: 0x100011978, symSize: 0x38 }
  - { offsetInCU: 0x832C, offset: 0x27CAD, size: 0x8, addend: 0x0, symName: __ZNSt3__114__rewrap_rangeB7v160006INS_16reverse_iteratorIPP10ECObserverEES5_EET_S6_T0_, symObjAddr: 0x2944, symBinAddr: 0x1000119B0, symSize: 0x5C }
  - { offsetInCU: 0x8378, offset: 0x27CF9, size: 0x8, addend: 0x0, symName: __ZNSt3__113__rewrap_iterB7v160006INS_16reverse_iteratorIPP10ECObserverEES5_NS_18__unwrap_iter_implIS5_Lb0EEEEET_S8_T0_, symObjAddr: 0x29A0, symBinAddr: 0x100011A0C, symSize: 0x88 }
  - { offsetInCU: 0x84B3, offset: 0x27E34, size: 0x8, addend: 0x0, symName: __ZNSt3__16removeB7v160006INS_11__wrap_iterIPP10ECObserverEES3_EET_S6_S6_RKT0_, symObjAddr: 0x2F80, symBinAddr: 0x100011E8C, symSize: 0x108 }
  - { offsetInCU: 0x8529, offset: 0x27EAA, size: 0x8, addend: 0x0, symName: __ZNSt3__1miB7v160006IPKP10ECObserverPS2_EENS_11__wrap_iterIT_E15difference_typeERKS8_RKNS6_IT0_EE, symObjAddr: 0x3124, symBinAddr: 0x100012030, symSize: 0x48 }
  - { offsetInCU: 0x8575, offset: 0x27EF6, size: 0x8, addend: 0x0, symName: __ZNSt3__1neB7v160006IPKP10ECObserverEEbRKNS_11__wrap_iterIT_EES9_, symObjAddr: 0x316C, symBinAddr: 0x100012078, symSize: 0x34 }
  - { offsetInCU: 0x85B8, offset: 0x27F39, size: 0x8, addend: 0x0, symName: __ZNSt3__14moveB7v160006IPP10ECObserverS3_EET0_T_S5_S4_, symObjAddr: 0x3228, symBinAddr: 0x100012134, symSize: 0x40 }
  - { offsetInCU: 0x8612, offset: 0x27F93, size: 0x8, addend: 0x0, symName: __ZNSt3__1miB7v160006IPKP10ECObserverS4_EENS_11__wrap_iterIT_E15difference_typeERKS7_RKNS5_IT0_EE, symObjAddr: 0x3268, symBinAddr: 0x100012174, symSize: 0x48 }
  - { offsetInCU: 0x865E, offset: 0x27FDF, size: 0x8, addend: 0x0, symName: __ZNSt3__1eqB7v160006IPKP10ECObserverEEbRKNS_11__wrap_iterIT_EES9_, symObjAddr: 0x3328, symBinAddr: 0x100012234, symSize: 0x48 }
  - { offsetInCU: 0x86A1, offset: 0x28022, size: 0x8, addend: 0x0, symName: __ZNSt3__16__moveB7v160006INS_17_ClassicAlgPolicyEPP10ECObserverS4_S4_EENS_4pairIT0_T2_EES6_T1_S7_, symObjAddr: 0x34C4, symBinAddr: 0x100012330, symSize: 0x44 }
  - { offsetInCU: 0x870D, offset: 0x2808E, size: 0x8, addend: 0x0, symName: __ZNSt3__123__dispatch_copy_or_moveB7v160006INS_17_ClassicAlgPolicyENS_11__move_loopIS1_EENS_14__move_trivialEPP10ECObserverS7_S7_EENS_4pairIT2_T4_EES9_T3_SA_, symObjAddr: 0x3508, symBinAddr: 0x100012374, symSize: 0x54 }
  - { offsetInCU: 0x878B, offset: 0x2810C, size: 0x8, addend: 0x0, symName: __ZNSt3__121__unwrap_and_dispatchB7v160006INS_10__overloadINS_11__move_loopINS_17_ClassicAlgPolicyEEENS_14__move_trivialEEEPP10ECObserverS9_S9_Li0EEENS_4pairIT0_T2_EESB_T1_SC_, symObjAddr: 0x355C, symBinAddr: 0x1000123C8, symSize: 0xB4 }
  - { offsetInCU: 0x881A, offset: 0x2819B, size: 0x8, addend: 0x0, symName: __ZNSt3__114__unwrap_rangeB7v160006IPP10ECObserverS3_EENS_4pairIT0_S5_EET_S7_, symObjAddr: 0x3610, symBinAddr: 0x10001247C, symSize: 0x60 }
  - { offsetInCU: 0x895A, offset: 0x282DB, size: 0x8, addend: 0x0, symName: __ZNSt3__113__unwrap_iterB7v160006IPP10ECObserverNS_18__unwrap_iter_implIS3_Lb1EEELi0EEEDTclsrT0_8__unwrapclsr3stdE7declvalIT_EEEES7_, symObjAddr: 0x36B8, symBinAddr: 0x100012524, symSize: 0x24 }
  - { offsetInCU: 0x899F, offset: 0x28320, size: 0x8, addend: 0x0, symName: __ZNSt3__19make_pairB7v160006IPP10ECObserverS3_EENS_4pairINS_18__unwrap_ref_decayIT_E4typeENS5_IT0_E4typeEEEOS6_OS9_, symObjAddr: 0x36DC, symBinAddr: 0x100012548, symSize: 0x38 }
  - { offsetInCU: 0x89EE, offset: 0x2836F, size: 0x8, addend: 0x0, symName: __ZNSt3__114__rewrap_rangeB7v160006IPP10ECObserverS3_EET_S4_T0_, symObjAddr: 0x3714, symBinAddr: 0x100012580, symSize: 0x2C }
  - { offsetInCU: 0x8A3A, offset: 0x283BB, size: 0x8, addend: 0x0, symName: __ZNSt3__113__rewrap_iterB7v160006IPP10ECObserverS3_NS_18__unwrap_iter_implIS3_Lb1EEEEET_S6_T0_, symObjAddr: 0x3740, symBinAddr: 0x1000125AC, symSize: 0x50 }
  - { offsetInCU: 0x8A8F, offset: 0x28410, size: 0x8, addend: 0x0, symName: __ZNSt3__119__copy_trivial_implB7v160006IP10ECObserverS2_EENS_4pairIPT_PT0_EES5_S5_S7_, symObjAddr: 0x3790, symBinAddr: 0x1000125FC, symSize: 0x84 }
  - { offsetInCU: 0x8AF7, offset: 0x28478, size: 0x8, addend: 0x0, symName: __ZNSt3__19make_pairB7v160006IRPP10ECObserverS3_EENS_4pairINS_18__unwrap_ref_decayIT_E4typeENS6_IT0_E4typeEEEOS7_OSA_, symObjAddr: 0x3814, symBinAddr: 0x100012680, symSize: 0x38 }
  - { offsetInCU: 0x8B99, offset: 0x2851A, size: 0x8, addend: 0x0, symName: __ZNSt3__14findB7v160006INS_11__wrap_iterIPP10ECObserverEES3_EET_S6_S6_RKT0_, symObjAddr: 0x3990, symBinAddr: 0x1000127FC, symSize: 0x80 }
  - { offsetInCU: 0x8BF3, offset: 0x28574, size: 0x8, addend: 0x0, symName: __ZNSt3__1neB7v160006IPP10ECObserverEEbRKNS_11__wrap_iterIT_EES8_, symObjAddr: 0x3A10, symBinAddr: 0x10001287C, symSize: 0x34 }
  - { offsetInCU: 0x8C36, offset: 0x285B7, size: 0x8, addend: 0x0, symName: __ZNSt3__1eqB7v160006IPP10ECObserverEEbRKNS_11__wrap_iterIT_EES8_, symObjAddr: 0x3A7C, symBinAddr: 0x1000128E8, symSize: 0x48 }
  - { offsetInCU: 0x8C79, offset: 0x285FA, size: 0x8, addend: 0x0, symName: __ZNSt3__119__debug_db_insert_cB7v160006INS_6vectorIP15ECConsoleUIItemNS_9allocatorIS3_EEEEEEvPT_, symObjAddr: 0x47E0, symBinAddr: 0x100012C08, symSize: 0x10 }
  - { offsetInCU: 0x8CAA, offset: 0x2862B, size: 0x8, addend: 0x0, symName: __ZNSt3__118__debug_db_erase_cB7v160006INS_6vectorIP15ECConsoleUIItemNS_9allocatorIS3_EEEEEEvPT_, symObjAddr: 0x4A9C, symBinAddr: 0x100012EC4, symSize: 0x10 }
  - { offsetInCU: 0x8CDB, offset: 0x2865C, size: 0x8, addend: 0x0, symName: __ZNSt3__112__to_addressB7v160006IP15ECConsoleUIItemEEPT_S4_, symObjAddr: 0x4BB8, symBinAddr: 0x100012FE0, symSize: 0x14 }
  - { offsetInCU: 0x8D11, offset: 0x28692, size: 0x8, addend: 0x0, symName: __ZNSt3__119__allocate_at_leastB7v160006INS_9allocatorIP15ECConsoleUIItemEEEENS_19__allocation_resultINS_16allocator_traitsIT_E7pointerEEERS7_m, symObjAddr: 0x5528, symBinAddr: 0x100013950, symSize: 0x40 }
  - { offsetInCU: 0x8D54, offset: 0x286D5, size: 0x8, addend: 0x0, symName: __ZNSt3__142__uninitialized_allocator_move_if_noexceptB7v160006INS_9allocatorIP15ECConsoleUIItemEENS_16reverse_iteratorIPS3_EES7_S3_vEET1_RT_T0_SB_S8_, symObjAddr: 0x5708, symBinAddr: 0x100013B30, symSize: 0xE8 }
  - { offsetInCU: 0x8DD2, offset: 0x28753, size: 0x8, addend: 0x0, symName: __ZNSt3__14swapB7v160006IPP15ECConsoleUIItemEEvRT_S5_, symObjAddr: 0x583C, symBinAddr: 0x100013C64, symSize: 0x3C }
  - { offsetInCU: 0x8E24, offset: 0x287A5, size: 0x8, addend: 0x0, symName: __ZNSt3__125__debug_db_invalidate_allB7v160006INS_6vectorIP15ECConsoleUIItemNS_9allocatorIS3_EEEEEEvPT_, symObjAddr: 0x5924, symBinAddr: 0x100013D4C, symSize: 0x10 }
  - { offsetInCU: 0x8E55, offset: 0x287D6, size: 0x8, addend: 0x0, symName: __ZNSt3__1neB7v160006IPP15ECConsoleUIItemS3_EEbRKNS_16reverse_iteratorIT_EERKNS4_IT0_EE, symObjAddr: 0x5934, symBinAddr: 0x100013D5C, symSize: 0x48 }
  - { offsetInCU: 0x8EC8, offset: 0x28849, size: 0x8, addend: 0x0, symName: __ZNSt3__114__construct_atB7v160006IP15ECConsoleUIItemJS2_EPS2_EEPT_S5_DpOT0_, symObjAddr: 0x597C, symBinAddr: 0x100013DA4, symSize: 0x2C }
  - { offsetInCU: 0x8F3B, offset: 0x288BC, size: 0x8, addend: 0x0, symName: __ZNSt3__112__to_addressB7v160006INS_16reverse_iteratorIPP15ECConsoleUIItemEEvEENS_5decayIDTclsr19__to_address_helperIT_EE6__callclsr3stdE7declvalIRKS7_EEEEE4typeES9_, symObjAddr: 0x59A8, symBinAddr: 0x100013DD0, symSize: 0x24 }
  - { offsetInCU: 0x8F71, offset: 0x288F2, size: 0x8, addend: 0x0, symName: __ZNSt3__14moveB7v160006INS_16reverse_iteratorIPP15ECConsoleUIItemEES5_EET0_T_S7_S6_, symObjAddr: 0x5A14, symBinAddr: 0x100013E3C, symSize: 0x78 }
  - { offsetInCU: 0x8FF5, offset: 0x28976, size: 0x8, addend: 0x0, symName: __ZNSt3__16__moveB7v160006INS_17_ClassicAlgPolicyENS_16reverse_iteratorIPP15ECConsoleUIItemEES6_S6_EENS_4pairIT0_T2_EES8_T1_S9_, symObjAddr: 0x5AFC, symBinAddr: 0x100013F24, symSize: 0x64 }
  - { offsetInCU: 0x9061, offset: 0x289E2, size: 0x8, addend: 0x0, symName: __ZNSt3__123__dispatch_copy_or_moveB7v160006INS_17_ClassicAlgPolicyENS_11__move_loopIS1_EENS_14__move_trivialENS_16reverse_iteratorIPP15ECConsoleUIItemEES9_S9_EENS_4pairIT2_T4_EESB_T3_SC_, symObjAddr: 0x5B60, symBinAddr: 0x100013F88, symSize: 0x7C }
  - { offsetInCU: 0x90DF, offset: 0x28A60, size: 0x8, addend: 0x0, symName: __ZNSt3__121__unwrap_and_dispatchB7v160006INS_10__overloadINS_11__move_loopINS_17_ClassicAlgPolicyEEENS_14__move_trivialEEENS_16reverse_iteratorIPP15ECConsoleUIItemEESB_SB_Li0EEENS_4pairIT0_T2_EESD_T1_SE_, symObjAddr: 0x5BDC, symBinAddr: 0x100014004, symSize: 0x12C }
  - { offsetInCU: 0x9170, offset: 0x28AF1, size: 0x8, addend: 0x0, symName: __ZNSt3__114__unwrap_rangeB7v160006INS_16reverse_iteratorIPP15ECConsoleUIItemEES5_EENS_4pairIT0_S7_EET_S9_, symObjAddr: 0x5D08, symBinAddr: 0x100014130, symSize: 0x84 }
  - { offsetInCU: 0x9269, offset: 0x28BEA, size: 0x8, addend: 0x0, symName: __ZNSt3__113__unwrap_iterB7v160006INS_16reverse_iteratorIPP15ECConsoleUIItemEENS_18__unwrap_iter_implIS5_Lb0EEELi0EEEDTclsrT0_8__unwrapclsr3stdE7declvalIT_EEEES9_, symObjAddr: 0x5E2C, symBinAddr: 0x100014254, symSize: 0x44 }
  - { offsetInCU: 0x92AE, offset: 0x28C2F, size: 0x8, addend: 0x0, symName: __ZNSt3__19make_pairB7v160006INS_16reverse_iteratorIPP15ECConsoleUIItemEES5_EENS_4pairINS_18__unwrap_ref_decayIT_E4typeENS7_IT0_E4typeEEEOS8_OSB_, symObjAddr: 0x5E70, symBinAddr: 0x100014298, symSize: 0x38 }
  - { offsetInCU: 0x92FD, offset: 0x28C7E, size: 0x8, addend: 0x0, symName: __ZNSt3__114__rewrap_rangeB7v160006INS_16reverse_iteratorIPP15ECConsoleUIItemEES5_EET_S6_T0_, symObjAddr: 0x5EA8, symBinAddr: 0x1000142D0, symSize: 0x5C }
  - { offsetInCU: 0x9349, offset: 0x28CCA, size: 0x8, addend: 0x0, symName: __ZNSt3__113__rewrap_iterB7v160006INS_16reverse_iteratorIPP15ECConsoleUIItemEES5_NS_18__unwrap_iter_implIS5_Lb0EEEEET_S8_T0_, symObjAddr: 0x5F04, symBinAddr: 0x10001432C, symSize: 0x88 }
  - { offsetInCU: 0x96F3, offset: 0x29074, size: 0x8, addend: 0x0, symName: __ZNSt3__16vectorIP10ECObserverNS_9allocatorIS2_EEE26__swap_out_circular_bufferERNS_14__split_bufferIS2_RS4_EE, symObjAddr: 0x17CC, symBinAddr: 0x100010CB4, symSize: 0x118 }
  - { offsetInCU: 0x9AB9, offset: 0x2943A, size: 0x8, addend: 0x0, symName: __ZNSt3__16vectorIP15ECConsoleUIItemNS_9allocatorIS2_EEE26__swap_out_circular_bufferERNS_14__split_bufferIS2_RS4_EE, symObjAddr: 0x51AC, symBinAddr: 0x1000135D4, symSize: 0x118 }
  - { offsetInCU: 0xBFDE, offset: 0x2B95F, size: 0x8, addend: 0x0, symName: __ZN15ECConsoleUIViewC2EP13ECTextViewImp, symObjAddr: 0x0, symBinAddr: 0x10000F6E8, symSize: 0xC4 }
  - { offsetInCU: 0xC016, offset: 0x2B997, size: 0x8, addend: 0x0, symName: __ZN10ECObserverC2Ev, symObjAddr: 0xC4, symBinAddr: 0x10000F7AC, symSize: 0x24 }
  - { offsetInCU: 0xC041, offset: 0x2B9C2, size: 0x8, addend: 0x0, symName: __ZNSt3__16vectorIP15ECConsoleUIItemNS_9allocatorIS2_EEEC1B7v160006Ev, symObjAddr: 0xE8, symBinAddr: 0x10000F7D0, symSize: 0x2C }
  - { offsetInCU: 0xC069, offset: 0x2B9EA, size: 0x8, addend: 0x0, symName: __ZN17ECObserverSubject6AttachEP10ECObserver, symObjAddr: 0x114, symBinAddr: 0x10000F7FC, symSize: 0x34 }
  - { offsetInCU: 0xC09B, offset: 0x2BA1C, size: 0x8, addend: 0x0, symName: __ZNSt3__16vectorIP15ECConsoleUIItemNS_9allocatorIS2_EEED1B7v160006Ev, symObjAddr: 0x148, symBinAddr: 0x10000F830, symSize: 0x2C }
  - { offsetInCU: 0xC0C3, offset: 0x2BA44, size: 0x8, addend: 0x0, symName: __ZN10ECObserverD2Ev, symObjAddr: 0x180, symBinAddr: 0x10000F85C, symSize: 0x14 }
  - { offsetInCU: 0xC0EB, offset: 0x2BA6C, size: 0x8, addend: 0x0, symName: __ZN15ECConsoleUIViewC1EP13ECTextViewImp, symObjAddr: 0x194, symBinAddr: 0x10000F870, symSize: 0x34 }
  - { offsetInCU: 0xC123, offset: 0x2BAA4, size: 0x8, addend: 0x0, symName: __ZN15ECConsoleUIViewD2Ev, symObjAddr: 0x1C8, symBinAddr: 0x10000F8A4, symSize: 0x13C }
  - { offsetInCU: 0xC169, offset: 0x2BAEA, size: 0x8, addend: 0x0, symName: __ZNKSt3__16vectorIP15ECConsoleUIItemNS_9allocatorIS2_EEE4sizeB7v160006Ev, symObjAddr: 0x304, symBinAddr: 0x10000F9E0, symSize: 0x28 }
  - { offsetInCU: 0xC18D, offset: 0x2BB0E, size: 0x8, addend: 0x0, symName: __ZNSt3__16vectorIP15ECConsoleUIItemNS_9allocatorIS2_EEEixB7v160006Em, symObjAddr: 0x32C, symBinAddr: 0x10000FA08, symSize: 0x24 }
  - { offsetInCU: 0xC1C3, offset: 0x2BB44, size: 0x8, addend: 0x0, symName: __ZN17ECObserverSubject6DetachEP10ECObserver, symObjAddr: 0x350, symBinAddr: 0x10000FA2C, symSize: 0xAC }
  - { offsetInCU: 0xC1F5, offset: 0x2BB76, size: 0x8, addend: 0x0, symName: __ZN15ECConsoleUIViewD1Ev, symObjAddr: 0x3FC, symBinAddr: 0x10000FAD8, symSize: 0x2C }
  - { offsetInCU: 0xC21F, offset: 0x2BBA0, size: 0x8, addend: 0x0, symName: __ZN15ECConsoleUIViewD0Ev, symObjAddr: 0x428, symBinAddr: 0x10000FB04, symSize: 0x58 }
  - { offsetInCU: 0xC249, offset: 0x2BBCA, size: 0x8, addend: 0x0, symName: __ZN15ECConsoleUIView9AddUIItemEP15ECConsoleUIItem, symObjAddr: 0x480, symBinAddr: 0x10000FB5C, symSize: 0x34 }
  - { offsetInCU: 0xC27C, offset: 0x2BBFD, size: 0x8, addend: 0x0, symName: __ZNSt3__16vectorIP15ECConsoleUIItemNS_9allocatorIS2_EEE9push_backB7v160006ERKS2_, symObjAddr: 0x4B4, symBinAddr: 0x10000FB90, symSize: 0x6C }
  - { offsetInCU: 0xC2B3, offset: 0x2BC34, size: 0x8, addend: 0x0, symName: __ZN15ECConsoleUIView7RefreshEv, symObjAddr: 0x520, symBinAddr: 0x10000FBFC, symSize: 0x3B0 }
  - { offsetInCU: 0xC3B0, offset: 0x2BD31, size: 0x8, addend: 0x0, symName: __ZN13ECTextViewImp8InitRowsEv, symObjAddr: 0x8D0, symBinAddr: 0x10000FFAC, symSize: 0x28 }
  - { offsetInCU: 0xC3D4, offset: 0x2BD55, size: 0x8, addend: 0x0, symName: __ZNK15ECConsoleUIView15GetRowNumInViewEv, symObjAddr: 0x8F8, symBinAddr: 0x10000FFD4, symSize: 0x28 }
  - { offsetInCU: 0xC3FA, offset: 0x2BD7B, size: 0x8, addend: 0x0, symName: __ZNK15ECConsoleUIView10ComposeRowEi, symObjAddr: 0x920, symBinAddr: 0x10000FFFC, symSize: 0x334 }
  - { offsetInCU: 0xC4CC, offset: 0x2BE4D, size: 0x8, addend: 0x0, symName: __ZN13ECTextViewImp10ClearColorEv, symObjAddr: 0xC54, symBinAddr: 0x100010330, symSize: 0x28 }
  - { offsetInCU: 0xC4F0, offset: 0x2BE71, size: 0x8, addend: 0x0, symName: __ZNK15ECConsoleUIItem6GetYLREv, symObjAddr: 0xC94, symBinAddr: 0x100010358, symSize: 0x18 }
  - { offsetInCU: 0xC519, offset: 0x2BE9A, size: 0x8, addend: 0x0, symName: __ZN15ECConsoleUIView6UpdateEv, symObjAddr: 0xD10, symBinAddr: 0x100010370, symSize: 0x268 }
  - { offsetInCU: 0xC577, offset: 0x2BEF8, size: 0x8, addend: 0x0, symName: __ZN13ECTextViewImp10SetCursorXEi, symObjAddr: 0xF78, symBinAddr: 0x1000105D8, symSize: 0x30 }
  - { offsetInCU: 0xC5A9, offset: 0x2BF2A, size: 0x8, addend: 0x0, symName: __ZN13ECTextViewImp10SetCursorYEi, symObjAddr: 0xFA8, symBinAddr: 0x100010608, symSize: 0x30 }
  - { offsetInCU: 0xC5DB, offset: 0x2BF5C, size: 0x8, addend: 0x0, symName: __ZNK15ECConsoleUIView23GetRightmostUIItemAtRowEi, symObjAddr: 0x1004, symBinAddr: 0x100010638, symSize: 0xF4 }
  - { offsetInCU: 0xC663, offset: 0x2BFE4, size: 0x8, addend: 0x0, symName: __ZNKSt3__16vectorIP15ECConsoleUIItemNS_9allocatorIS2_EEEixB7v160006Em, symObjAddr: 0x10F8, symBinAddr: 0x10001072C, symSize: 0x24 }
  - { offsetInCU: 0xC699, offset: 0x2C01A, size: 0x8, addend: 0x0, symName: __ZNSt3__112basic_stringIcNS_11char_traitsIcEENS_9allocatorIcEEEixB7v160006Em, symObjAddr: 0x11A4, symBinAddr: 0x100010750, symSize: 0x30 }
  - { offsetInCU: 0xC6CC, offset: 0x2C04D, size: 0x8, addend: 0x0, symName: __ZNK13ECTextViewImp15GetRowNumInViewEv, symObjAddr: 0x11D4, symBinAddr: 0x100010780, symSize: 0x28 }
  - { offsetInCU: 0xC6F0, offset: 0x2C071, size: 0x8, addend: 0x0, symName: __ZNK15ECConsoleUIView15GetColNumInViewEv, symObjAddr: 0x11FC, symBinAddr: 0x1000107A8, symSize: 0x28 }
  - { offsetInCU: 0xC716, offset: 0x2C097, size: 0x8, addend: 0x0, symName: __ZNK15ECConsoleUIItem17IsIntersectingRowEi, symObjAddr: 0x124C, symBinAddr: 0x1000107D0, symSize: 0x60 }
  - { offsetInCU: 0xC748, offset: 0x2C0C9, size: 0x8, addend: 0x0, symName: __ZN10ECObserverD1Ev, symObjAddr: 0x12AC, symBinAddr: 0x100010830, symSize: 0x14 }
  - { offsetInCU: 0xC770, offset: 0x2C0F1, size: 0x8, addend: 0x0, symName: __ZN10ECObserverD0Ev, symObjAddr: 0x12C0, symBinAddr: 0x100010844, symSize: 0xC }
  - { offsetInCU: 0xC797, offset: 0x2C118, size: 0x8, addend: 0x0, symName: __ZNSt3__16vectorIP10ECObserverNS_9allocatorIS2_EEE9push_backB7v160006ERKS2_, symObjAddr: 0x12CC, symBinAddr: 0x100010850, symSize: 0x6C }
  - { offsetInCU: 0xC7CE, offset: 0x2C14F, size: 0x8, addend: 0x0, symName: __ZNSt3__16vectorIP10ECObserverNS_9allocatorIS2_EEE9__end_capB7v160006Ev, symObjAddr: 0x1338, symBinAddr: 0x1000108BC, symSize: 0x28 }
  - { offsetInCU: 0xC7F2, offset: 0x2C173, size: 0x8, addend: 0x0, symName: __ZNSt3__16vectorIP10ECObserverNS_9allocatorIS2_EEE22__construct_one_at_endB7v160006IJRKS2_EEEvDpOT_, symObjAddr: 0x1360, symBinAddr: 0x1000108E4, symSize: 0x98 }
  - { offsetInCU: 0xC83E, offset: 0x2C1BF, size: 0x8, addend: 0x0, symName: __ZNSt3__16vectorIP10ECObserverNS_9allocatorIS2_EEE21__push_back_slow_pathIRKS2_EEvOT_, symObjAddr: 0x13F8, symBinAddr: 0x10001097C, symSize: 0xE0 }
  - { offsetInCU: 0xC89C, offset: 0x2C21D, size: 0x8, addend: 0x0, symName: __ZNSt3__117__compressed_pairIPP10ECObserverNS_9allocatorIS2_EEE5firstB7v160006Ev, symObjAddr: 0x14D8, symBinAddr: 0x100010A5C, symSize: 0x24 }
  - { offsetInCU: 0xC8C0, offset: 0x2C241, size: 0x8, addend: 0x0, symName: __ZNSt3__122__compressed_pair_elemIPP10ECObserverLi0ELb0EE5__getB7v160006Ev, symObjAddr: 0x14FC, symBinAddr: 0x100010A80, symSize: 0x14 }
  - { offsetInCU: 0xC8FD, offset: 0x2C27E, size: 0x8, addend: 0x0, symName: __ZNSt3__16vectorIP10ECObserverNS_9allocatorIS2_EEE21_ConstructTransactionC1B7v160006ERS5_m, symObjAddr: 0x1510, symBinAddr: 0x100010A94, symSize: 0x3C }
  - { offsetInCU: 0xC943, offset: 0x2C2C4, size: 0x8, addend: 0x0, symName: __ZNSt3__116allocator_traitsINS_9allocatorIP10ECObserverEEE9constructB7v160006IS3_JRKS3_EvEEvRS4_PT_DpOT0_, symObjAddr: 0x154C, symBinAddr: 0x100010AD0, symSize: 0x34 }
  - { offsetInCU: 0xC999, offset: 0x2C31A, size: 0x8, addend: 0x0, symName: __ZNSt3__16vectorIP10ECObserverNS_9allocatorIS2_EEE21_ConstructTransactionD1B7v160006Ev, symObjAddr: 0x15BC, symBinAddr: 0x100010B04, symSize: 0x2C }
  - { offsetInCU: 0xC9C1, offset: 0x2C342, size: 0x8, addend: 0x0, symName: __ZNSt3__16vectorIP10ECObserverNS_9allocatorIS2_EEE21_ConstructTransactionC2B7v160006ERS5_m, symObjAddr: 0x15E8, symBinAddr: 0x100010B30, symSize: 0x44 }
  - { offsetInCU: 0xCA07, offset: 0x2C388, size: 0x8, addend: 0x0, symName: __ZNSt3__19allocatorIP10ECObserverE9constructB7v160006IS2_JRKS2_EEEvPT_DpOT0_, symObjAddr: 0x162C, symBinAddr: 0x100010B74, symSize: 0x28 }
  - { offsetInCU: 0xCA5B, offset: 0x2C3DC, size: 0x8, addend: 0x0, symName: __ZNSt3__16vectorIP10ECObserverNS_9allocatorIS2_EEE21_ConstructTransactionD2B7v160006Ev, symObjAddr: 0x168C, symBinAddr: 0x100010B9C, symSize: 0x20 }
  - { offsetInCU: 0xCA82, offset: 0x2C403, size: 0x8, addend: 0x0, symName: __ZNKSt3__16vectorIP10ECObserverNS_9allocatorIS2_EEE11__recommendB7v160006Em, symObjAddr: 0x16AC, symBinAddr: 0x100010BBC, symSize: 0xB4 }
  - { offsetInCU: 0xCAD7, offset: 0x2C458, size: 0x8, addend: 0x0, symName: __ZNSt3__114__split_bufferIP10ECObserverRNS_9allocatorIS2_EEEC1EmmS5_, symObjAddr: 0x1788, symBinAddr: 0x100010C70, symSize: 0x44 }
  - { offsetInCU: 0xCB2C, offset: 0x2C4AD, size: 0x8, addend: 0x0, symName: __ZNSt3__114__split_bufferIP10ECObserverRNS_9allocatorIS2_EEED1Ev, symObjAddr: 0x18E4, symBinAddr: 0x100010DCC, symSize: 0x2C }
  - { offsetInCU: 0xCB56, offset: 0x2C4D7, size: 0x8, addend: 0x0, symName: __ZNKSt3__16vectorIP10ECObserverNS_9allocatorIS2_EEE8max_sizeEv, symObjAddr: 0x1910, symBinAddr: 0x100010DF8, symSize: 0x74 }
  - { offsetInCU: 0xCB7E, offset: 0x2C4FF, size: 0x8, addend: 0x0, symName: __ZNKSt3__16vectorIP10ECObserverNS_9allocatorIS2_EEE20__throw_length_errorB7v160006Ev, symObjAddr: 0x1984, symBinAddr: 0x100010E6C, symSize: 0x1C }
  - { offsetInCU: 0xCBAC, offset: 0x2C52D, size: 0x8, addend: 0x0, symName: __ZNSt3__116allocator_traitsINS_9allocatorIP10ECObserverEEE8max_sizeB7v160006IS4_vEEmRKS4_, symObjAddr: 0x1A38, symBinAddr: 0x100010E88, symSize: 0x24 }
  - { offsetInCU: 0xCBD9, offset: 0x2C55A, size: 0x8, addend: 0x0, symName: __ZNKSt3__16vectorIP10ECObserverNS_9allocatorIS2_EEE7__allocB7v160006Ev, symObjAddr: 0x1A5C, symBinAddr: 0x100010EAC, symSize: 0x28 }
  - { offsetInCU: 0xCBFD, offset: 0x2C57E, size: 0x8, addend: 0x0, symName: __ZNKSt3__19allocatorIP10ECObserverE8max_sizeB7v160006Ev, symObjAddr: 0x1B20, symBinAddr: 0x100010ED4, symSize: 0x14 }
  - { offsetInCU: 0xCC21, offset: 0x2C5A2, size: 0x8, addend: 0x0, symName: __ZNKSt3__117__compressed_pairIPP10ECObserverNS_9allocatorIS2_EEE6secondB7v160006Ev, symObjAddr: 0x1B34, symBinAddr: 0x100010EE8, symSize: 0x24 }
  - { offsetInCU: 0xCC45, offset: 0x2C5C6, size: 0x8, addend: 0x0, symName: __ZNKSt3__122__compressed_pair_elemINS_9allocatorIP10ECObserverEELi1ELb1EE5__getB7v160006Ev, symObjAddr: 0x1B58, symBinAddr: 0x100010F0C, symSize: 0x14 }
  - { offsetInCU: 0xCC69, offset: 0x2C5EA, size: 0x8, addend: 0x0, symName: __ZNSt3__114__split_bufferIP10ECObserverRNS_9allocatorIS2_EEEC2EmmS5_, symObjAddr: 0x1D0C, symBinAddr: 0x100010F20, symSize: 0xD4 }
  - { offsetInCU: 0xCCE0, offset: 0x2C661, size: 0x8, addend: 0x0, symName: __ZNSt3__117__compressed_pairIPP10ECObserverRNS_9allocatorIS2_EEEC1B7v160006IDnS6_EEOT_OT0_, symObjAddr: 0x1DE0, symBinAddr: 0x100010FF4, symSize: 0x3C }
  - { offsetInCU: 0xCD36, offset: 0x2C6B7, size: 0x8, addend: 0x0, symName: __ZNSt3__114__split_bufferIP10ECObserverRNS_9allocatorIS2_EEE7__allocB7v160006Ev, symObjAddr: 0x1E5C, symBinAddr: 0x100011070, symSize: 0x28 }
  - { offsetInCU: 0xCD5A, offset: 0x2C6DB, size: 0x8, addend: 0x0, symName: __ZNSt3__114__split_bufferIP10ECObserverRNS_9allocatorIS2_EEE9__end_capB7v160006Ev, symObjAddr: 0x1E84, symBinAddr: 0x100011098, symSize: 0x28 }
  - { offsetInCU: 0xCD7E, offset: 0x2C6FF, size: 0x8, addend: 0x0, symName: __ZNSt3__117__compressed_pairIPP10ECObserverRNS_9allocatorIS2_EEEC2B7v160006IDnS6_EEOT_OT0_, symObjAddr: 0x1EAC, symBinAddr: 0x1000110C0, symSize: 0x48 }
  - { offsetInCU: 0xCDD4, offset: 0x2C755, size: 0x8, addend: 0x0, symName: __ZNSt3__122__compressed_pair_elemIRNS_9allocatorIP10ECObserverEELi1ELb0EEC2B7v160006IS5_vEEOT_, symObjAddr: 0x1F10, symBinAddr: 0x100011108, symSize: 0x20 }
  - { offsetInCU: 0xCE14, offset: 0x2C795, size: 0x8, addend: 0x0, symName: __ZNSt3__19allocatorIP10ECObserverE8allocateB7v160006Em, symObjAddr: 0x1F30, symBinAddr: 0x100011128, symSize: 0x84 }
  - { offsetInCU: 0xCE46, offset: 0x2C7C7, size: 0x8, addend: 0x0, symName: __ZNSt3__117__compressed_pairIPP10ECObserverRNS_9allocatorIS2_EEE6secondB7v160006Ev, symObjAddr: 0x2040, symBinAddr: 0x1000111AC, symSize: 0x28 }
  - { offsetInCU: 0xCE6A, offset: 0x2C7EB, size: 0x8, addend: 0x0, symName: __ZNSt3__122__compressed_pair_elemIRNS_9allocatorIP10ECObserverEELi1ELb0EE5__getB7v160006Ev, symObjAddr: 0x2068, symBinAddr: 0x1000111D4, symSize: 0x18 }
  - { offsetInCU: 0xCE8E, offset: 0x2C80F, size: 0x8, addend: 0x0, symName: __ZNSt3__117__compressed_pairIPP10ECObserverRNS_9allocatorIS2_EEE5firstB7v160006Ev, symObjAddr: 0x2080, symBinAddr: 0x1000111EC, symSize: 0x24 }
  - { offsetInCU: 0xCEB2, offset: 0x2C833, size: 0x8, addend: 0x0, symName: __ZNSt3__116reverse_iteratorIPP10ECObserverEC1B7v160006ES3_, symObjAddr: 0x2244, symBinAddr: 0x1000112F8, symSize: 0x34 }
  - { offsetInCU: 0xCEE8, offset: 0x2C869, size: 0x8, addend: 0x0, symName: __ZNKSt3__116reverse_iteratorIPP10ECObserverE4baseB7v160006Ev, symObjAddr: 0x2278, symBinAddr: 0x10001132C, symSize: 0x18 }
  - { offsetInCU: 0xCF0C, offset: 0x2C88D, size: 0x8, addend: 0x0, symName: __ZNKSt3__16vectorIP10ECObserverNS_9allocatorIS2_EEE14__annotate_newB7v160006Em, symObjAddr: 0x22CC, symBinAddr: 0x100011380, symSize: 0xAC }
  - { offsetInCU: 0xCF3F, offset: 0x2C8C0, size: 0x8, addend: 0x0, symName: __ZNKSt3__116reverse_iteratorIPP10ECObserverEdeB7v160006Ev, symObjAddr: 0x2468, symBinAddr: 0x1000114D4, symSize: 0x28 }
  - { offsetInCU: 0xCF71, offset: 0x2C8F2, size: 0x8, addend: 0x0, symName: __ZNSt3__116reverse_iteratorIPP10ECObserverEppB7v160006Ev, symObjAddr: 0x2490, symBinAddr: 0x1000114FC, symSize: 0x20 }
  - { offsetInCU: 0xCF9A, offset: 0x2C91B, size: 0x8, addend: 0x0, symName: __ZNSt3__119__to_address_helperINS_16reverse_iteratorIPP10ECObserverEEvE6__callB7v160006ERKS5_, symObjAddr: 0x2528, symBinAddr: 0x100011594, symSize: 0x4C }
  - { offsetInCU: 0xCFBC, offset: 0x2C93D, size: 0x8, addend: 0x0, symName: __ZNKSt3__116reverse_iteratorIPP10ECObserverEptB7v160006Ev, symObjAddr: 0x2574, symBinAddr: 0x1000115E0, symSize: 0x24 }
  - { offsetInCU: 0xD003, offset: 0x2C984, size: 0x8, addend: 0x0, symName: __ZNKSt3__111__move_loopINS_17_ClassicAlgPolicyEEclB7v160006INS_16reverse_iteratorIPP10ECObserverEES8_S8_EENS_4pairIT_T1_EESA_T0_SB_, symObjAddr: 0x2828, symBinAddr: 0x100011894, symSize: 0xA0 }
  - { offsetInCU: 0xD071, offset: 0x2C9F2, size: 0x8, addend: 0x0, symName: __ZNSt3__18_IterOpsINS_17_ClassicAlgPolicyEE11__iter_moveB7v160006IRNS_16reverse_iteratorIPP10ECObserverEEEENS_9enable_ifIXsr12is_referenceIDTdeclsr3stdE7declvalIRT_EEEEE5valueEDTclsr3stdE4movedeclsr3stdE7declvalISC_EEEEE4typeEOSB_, symObjAddr: 0x2A28, symBinAddr: 0x100011A94, symSize: 0x28 }
  - { offsetInCU: 0xD09C, offset: 0x2CA1D, size: 0x8, addend: 0x0, symName: __ZNSt3__18_IterOpsINS_17_ClassicAlgPolicyEE25__validate_iter_referenceB7v160006IRNS_16reverse_iteratorIPP10ECObserverEEEEvv, symObjAddr: 0x2A50, symBinAddr: 0x100011ABC, symSize: 0x4 }
  - { offsetInCU: 0xD0B9, offset: 0x2CA3A, size: 0x8, addend: 0x0, symName: __ZNSt3__118__unwrap_iter_implINS_16reverse_iteratorIPP10ECObserverEELb0EE8__unwrapB7v160006ES5_, symObjAddr: 0x2A54, symBinAddr: 0x100011AC0, symSize: 0x24 }
  - { offsetInCU: 0xD0DB, offset: 0x2CA5C, size: 0x8, addend: 0x0, symName: __ZNSt3__14pairINS_16reverse_iteratorIPP10ECObserverEES5_EC1B7v160006ERKS5_S8_, symObjAddr: 0x2A78, symBinAddr: 0x100011AE4, symSize: 0x3C }
  - { offsetInCU: 0xD11F, offset: 0x2CAA0, size: 0x8, addend: 0x0, symName: __ZNSt3__14pairINS_16reverse_iteratorIPP10ECObserverEES5_EC2B7v160006ERKS5_S8_, symObjAddr: 0x2AB4, symBinAddr: 0x100011B20, symSize: 0x34 }
  - { offsetInCU: 0xD163, offset: 0x2CAE4, size: 0x8, addend: 0x0, symName: __ZNSt3__118__unwrap_iter_implINS_16reverse_iteratorIPP10ECObserverEELb0EE8__rewrapB7v160006ES5_S5_, symObjAddr: 0x2AE8, symBinAddr: 0x100011B54, symSize: 0x2C }
  - { offsetInCU: 0xD18F, offset: 0x2CB10, size: 0x8, addend: 0x0, symName: __ZNSt3__116reverse_iteratorIPP10ECObserverEC2B7v160006ES3_, symObjAddr: 0x2B14, symBinAddr: 0x100011B80, symSize: 0x28 }
  - { offsetInCU: 0xD1C5, offset: 0x2CB46, size: 0x8, addend: 0x0, symName: __ZNSt3__114__split_bufferIP10ECObserverRNS_9allocatorIS2_EEED2Ev, symObjAddr: 0x2B3C, symBinAddr: 0x100011BA8, symSize: 0x80 }
  - { offsetInCU: 0xD1F0, offset: 0x2CB71, size: 0x8, addend: 0x0, symName: __ZNSt3__114__split_bufferIP10ECObserverRNS_9allocatorIS2_EEE5clearB7v160006Ev, symObjAddr: 0x2BBC, symBinAddr: 0x100011C28, symSize: 0x28 }
  - { offsetInCU: 0xD214, offset: 0x2CB95, size: 0x8, addend: 0x0, symName: __ZNKSt3__114__split_bufferIP10ECObserverRNS_9allocatorIS2_EEE8capacityB7v160006Ev, symObjAddr: 0x2C18, symBinAddr: 0x100011C50, symSize: 0x40 }
  - { offsetInCU: 0xD238, offset: 0x2CBB9, size: 0x8, addend: 0x0, symName: __ZNSt3__114__split_bufferIP10ECObserverRNS_9allocatorIS2_EEE17__destruct_at_endB7v160006EPS2_, symObjAddr: 0x2C58, symBinAddr: 0x100011C90, symSize: 0x2C }
  - { offsetInCU: 0xD269, offset: 0x2CBEA, size: 0x8, addend: 0x0, symName: __ZNSt3__114__split_bufferIP10ECObserverRNS_9allocatorIS2_EEE17__destruct_at_endB7v160006EPS2_NS_17integral_constantIbLb0EEE, symObjAddr: 0x2C84, symBinAddr: 0x100011CBC, symSize: 0x94 }
  - { offsetInCU: 0xD2A9, offset: 0x2CC2A, size: 0x8, addend: 0x0, symName: __ZNKSt3__114__split_bufferIP10ECObserverRNS_9allocatorIS2_EEE9__end_capB7v160006Ev, symObjAddr: 0x2E44, symBinAddr: 0x100011D50, symSize: 0x28 }
  - { offsetInCU: 0xD2CD, offset: 0x2CC4E, size: 0x8, addend: 0x0, symName: __ZNKSt3__117__compressed_pairIPP10ECObserverRNS_9allocatorIS2_EEE5firstB7v160006Ev, symObjAddr: 0x2E6C, symBinAddr: 0x100011D78, symSize: 0x24 }
  - { offsetInCU: 0xD2F0, offset: 0x2CC71, size: 0x8, addend: 0x0, symName: __ZNSt3__16vectorIP10ECObserverNS_9allocatorIS2_EEE5eraseENS_11__wrap_iterIPKS2_EES9_, symObjAddr: 0x2E90, symBinAddr: 0x100011D9C, symSize: 0xF0 }
  - { offsetInCU: 0xD344, offset: 0x2CCC5, size: 0x8, addend: 0x0, symName: __ZNSt3__16vectorIP10ECObserverNS_9allocatorIS2_EEE5beginB7v160006Ev, symObjAddr: 0x3088, symBinAddr: 0x100011F94, symSize: 0x30 }
  - { offsetInCU: 0xD36B, offset: 0x2CCEC, size: 0x8, addend: 0x0, symName: __ZNSt3__16vectorIP10ECObserverNS_9allocatorIS2_EEE3endB7v160006Ev, symObjAddr: 0x30B8, symBinAddr: 0x100011FC4, symSize: 0x30 }
  - { offsetInCU: 0xD39D, offset: 0x2CD1E, size: 0x8, addend: 0x0, symName: __ZNSt3__111__wrap_iterIPKP10ECObserverEC1B7v160006IPS2_EERKNS0_IT_EEPNS_9enable_ifIXsr14is_convertibleIS8_S4_EE5valueEvE4typeE, symObjAddr: 0x30E8, symBinAddr: 0x100011FF4, symSize: 0x3C }
  - { offsetInCU: 0xD3E6, offset: 0x2CD67, size: 0x8, addend: 0x0, symName: __ZNSt3__16vectorIP10ECObserverNS_9allocatorIS2_EEE17__destruct_at_endB7v160006EPS2_, symObjAddr: 0x31A0, symBinAddr: 0x1000120AC, symSize: 0x88 }
  - { offsetInCU: 0xD428, offset: 0x2CDA9, size: 0x8, addend: 0x0, symName: __ZNSt3__16vectorIP10ECObserverNS_9allocatorIS2_EEE27__invalidate_iterators_pastB7v160006EPS2_, symObjAddr: 0x32B0, symBinAddr: 0x1000121BC, symSize: 0x14 }
  - { offsetInCU: 0xD45E, offset: 0x2CDDF, size: 0x8, addend: 0x0, symName: __ZNSt3__16vectorIP10ECObserverNS_9allocatorIS2_EEE11__make_iterB7v160006EPS2_, symObjAddr: 0x32C4, symBinAddr: 0x1000121D0, symSize: 0x34 }
  - { offsetInCU: 0xD491, offset: 0x2CE12, size: 0x8, addend: 0x0, symName: __ZNKSt3__111__wrap_iterIPKP10ECObserverE4baseB7v160006Ev, symObjAddr: 0x32F8, symBinAddr: 0x100012204, symSize: 0x18 }
  - { offsetInCU: 0xD4B5, offset: 0x2CE36, size: 0x8, addend: 0x0, symName: __ZNKSt3__111__wrap_iterIPP10ECObserverE4baseB7v160006Ev, symObjAddr: 0x3310, symBinAddr: 0x10001221C, symSize: 0x18 }
  - { offsetInCU: 0xD4D9, offset: 0x2CE5A, size: 0x8, addend: 0x0, symName: __ZNKSt3__16vectorIP10ECObserverNS_9allocatorIS2_EEE17__annotate_shrinkB7v160006Em, symObjAddr: 0x3410, symBinAddr: 0x10001227C, symSize: 0xB4 }
  - { offsetInCU: 0xD52F, offset: 0x2CEB0, size: 0x8, addend: 0x0, symName: __ZNKSt3__114__move_trivialclB7v160006IP10ECObserverS3_Li0EEENS_4pairIPT_PT0_EES6_S6_S8_, symObjAddr: 0x3670, symBinAddr: 0x1000124DC, symSize: 0x48 }
  - { offsetInCU: 0xD596, offset: 0x2CF17, size: 0x8, addend: 0x0, symName: __ZNSt3__14pairIPP10ECObserverS3_EC1B7v160006ERKS3_S6_, symObjAddr: 0x384C, symBinAddr: 0x1000126B8, symSize: 0x3C }
  - { offsetInCU: 0xD5DA, offset: 0x2CF5B, size: 0x8, addend: 0x0, symName: __ZNSt3__14pairIPP10ECObserverS3_EC2B7v160006ERKS3_S6_, symObjAddr: 0x3888, symBinAddr: 0x1000126F4, symSize: 0x34 }
  - { offsetInCU: 0xD61E, offset: 0x2CF9F, size: 0x8, addend: 0x0, symName: __ZNSt3__118__unwrap_iter_implIPP10ECObserverLb1EE8__unwrapB7v160006ES3_, symObjAddr: 0x38BC, symBinAddr: 0x100012728, symSize: 0x24 }
  - { offsetInCU: 0xD640, offset: 0x2CFC1, size: 0x8, addend: 0x0, symName: __ZNSt3__118__unwrap_iter_implIPP10ECObserverLb1EE8__rewrapB7v160006ES3_S3_, symObjAddr: 0x38E0, symBinAddr: 0x10001274C, symSize: 0x50 }
  - { offsetInCU: 0xD670, offset: 0x2CFF1, size: 0x8, addend: 0x0, symName: __ZNSt3__111__wrap_iterIPP10ECObserverEC1B7v160006EPKvS3_, symObjAddr: 0x3930, symBinAddr: 0x10001279C, symSize: 0x3C }
  - { offsetInCU: 0xD6B4, offset: 0x2D035, size: 0x8, addend: 0x0, symName: __ZNSt3__111__wrap_iterIPP10ECObserverEC2B7v160006EPKvS3_, symObjAddr: 0x396C, symBinAddr: 0x1000127D8, symSize: 0x24 }
  - { offsetInCU: 0xD6F8, offset: 0x2D079, size: 0x8, addend: 0x0, symName: __ZNSt3__111__wrap_iterIPP10ECObserverEppB7v160006Ev, symObjAddr: 0x3A44, symBinAddr: 0x1000128B0, symSize: 0x20 }
  - { offsetInCU: 0xD71C, offset: 0x2D09D, size: 0x8, addend: 0x0, symName: __ZNKSt3__111__wrap_iterIPP10ECObserverEdeB7v160006Ev, symObjAddr: 0x3A64, symBinAddr: 0x1000128D0, symSize: 0x18 }
  - { offsetInCU: 0xD740, offset: 0x2D0C1, size: 0x8, addend: 0x0, symName: __ZNSt3__111__wrap_iterIPKP10ECObserverEC2B7v160006IPS2_EERKNS0_IT_EEPNS_9enable_ifIXsr14is_convertibleIS8_S4_EE5valueEvE4typeE, symObjAddr: 0x3AC4, symBinAddr: 0x100012930, symSize: 0x40 }
  - { offsetInCU: 0xD789, offset: 0x2D10A, size: 0x8, addend: 0x0, symName: __ZNSt3__16vectorINS_12basic_stringIcNS_11char_traitsIcEENS_9allocatorIcEEEENS4_IS6_EEE5clearB7v160006Ev, symObjAddr: 0x3B04, symBinAddr: 0x100012970, symSize: 0x68 }
  - { offsetInCU: 0xD7BC, offset: 0x2D13D, size: 0x8, addend: 0x0, symName: __ZNKSt3__16vectorINS_12basic_stringIcNS_11char_traitsIcEENS_9allocatorIcEEEENS4_IS6_EEE17__annotate_shrinkB7v160006Em, symObjAddr: 0x3BBC, symBinAddr: 0x1000129D8, symSize: 0xD0 }
  - { offsetInCU: 0xD7EF, offset: 0x2D170, size: 0x8, addend: 0x0, symName: __ZNSt3__13mapIiNS0_IiNS_4pairIi10TEXT_COLOREENS_4lessIiEENS_9allocatorINS1_IKiS3_EEEEEES5_NS6_INS1_IS7_SA_EEEEE5clearB7v160006Ev, symObjAddr: 0x3EEC, symBinAddr: 0x100012AA8, symSize: 0x24 }
  - { offsetInCU: 0xD812, offset: 0x2D193, size: 0x8, addend: 0x0, symName: __ZNSt3__16__treeINS_12__value_typeIiNS_3mapIiNS_4pairIi10TEXT_COLOREENS_4lessIiEENS_9allocatorINS3_IKiS5_EEEEEEEENS_19__map_value_compareIiSD_S7_Lb1EEENS8_ISD_EEE5clearEv, symObjAddr: 0x3F10, symBinAddr: 0x100012ACC, symSize: 0x74 }
  - { offsetInCU: 0xD83A, offset: 0x2D1BB, size: 0x8, addend: 0x0, symName: __ZN16ECTextViewConfig10SetCursorXEi, symObjAddr: 0x46C4, symBinAddr: 0x100012B40, symSize: 0x20 }
  - { offsetInCU: 0xD86C, offset: 0x2D1ED, size: 0x8, addend: 0x0, symName: __ZN16ECTextViewConfig10SetCursorYEi, symObjAddr: 0x46E4, symBinAddr: 0x100012B60, symSize: 0x20 }
  - { offsetInCU: 0xD89E, offset: 0x2D21F, size: 0x8, addend: 0x0, symName: __ZNSt3__16vectorIP15ECConsoleUIItemNS_9allocatorIS2_EEEC2B7v160006Ev, symObjAddr: 0x4758, symBinAddr: 0x100012B80, symSize: 0x4C }
  - { offsetInCU: 0xD8CB, offset: 0x2D24C, size: 0x8, addend: 0x0, symName: __ZNSt3__117__compressed_pairIPP15ECConsoleUIItemNS_9allocatorIS2_EEEC1B7v160006IDnNS_18__default_init_tagEEEOT_OT0_, symObjAddr: 0x47A4, symBinAddr: 0x100012BCC, symSize: 0x3C }
  - { offsetInCU: 0xD921, offset: 0x2D2A2, size: 0x8, addend: 0x0, symName: __ZNSt3__117__compressed_pairIPP15ECConsoleUIItemNS_9allocatorIS2_EEEC2B7v160006IDnNS_18__default_init_tagEEEOT_OT0_, symObjAddr: 0x47F0, symBinAddr: 0x100012C18, symSize: 0x40 }
  - { offsetInCU: 0xD977, offset: 0x2D2F8, size: 0x8, addend: 0x0, symName: __ZNSt3__122__compressed_pair_elemIPP15ECConsoleUIItemLi0ELb0EEC2B7v160006IDnvEEOT_, symObjAddr: 0x4830, symBinAddr: 0x100012C58, symSize: 0x1C }
  - { offsetInCU: 0xD9B7, offset: 0x2D338, size: 0x8, addend: 0x0, symName: __ZNSt3__122__compressed_pair_elemINS_9allocatorIP15ECConsoleUIItemEELi1ELb1EEC2B7v160006ENS_18__default_init_tagE, symObjAddr: 0x484C, symBinAddr: 0x100012C74, symSize: 0x2C }
  - { offsetInCU: 0xD9E9, offset: 0x2D36A, size: 0x8, addend: 0x0, symName: __ZNSt3__19allocatorIP15ECConsoleUIItemEC2B7v160006Ev, symObjAddr: 0x4878, symBinAddr: 0x100012CA0, symSize: 0x2C }
  - { offsetInCU: 0xDA11, offset: 0x2D392, size: 0x8, addend: 0x0, symName: __ZNSt3__116__non_trivial_ifILb1ENS_9allocatorIP15ECConsoleUIItemEEEC2B7v160006Ev, symObjAddr: 0x48A4, symBinAddr: 0x100012CCC, symSize: 0x14 }
  - { offsetInCU: 0xDA39, offset: 0x2D3BA, size: 0x8, addend: 0x0, symName: __ZNSt3__16vectorIP15ECConsoleUIItemNS_9allocatorIS2_EEED2B7v160006Ev, symObjAddr: 0x48B8, symBinAddr: 0x100012CE0, symSize: 0x3C }
  - { offsetInCU: 0xDA61, offset: 0x2D3E2, size: 0x8, addend: 0x0, symName: __ZNSt3__16vectorIP15ECConsoleUIItemNS_9allocatorIS2_EEE16__destroy_vectorC1ERS5_, symObjAddr: 0x48F4, symBinAddr: 0x100012D1C, symSize: 0x34 }
  - { offsetInCU: 0xDA98, offset: 0x2D419, size: 0x8, addend: 0x0, symName: __ZNSt3__16vectorIP15ECConsoleUIItemNS_9allocatorIS2_EEE16__destroy_vectorclB7v160006Ev, symObjAddr: 0x4928, symBinAddr: 0x100012D50, symSize: 0x9C }
  - { offsetInCU: 0xDABC, offset: 0x2D43D, size: 0x8, addend: 0x0, symName: __ZNSt3__16vectorIP15ECConsoleUIItemNS_9allocatorIS2_EEE16__destroy_vectorC2ERS5_, symObjAddr: 0x49C4, symBinAddr: 0x100012DEC, symSize: 0x20 }
  - { offsetInCU: 0xDAF3, offset: 0x2D474, size: 0x8, addend: 0x0, symName: __ZNKSt3__16vectorIP15ECConsoleUIItemNS_9allocatorIS2_EEE17__annotate_deleteB7v160006Ev, symObjAddr: 0x49E4, symBinAddr: 0x100012E0C, symSize: 0xB8 }
  - { offsetInCU: 0xDB17, offset: 0x2D498, size: 0x8, addend: 0x0, symName: __ZNSt3__16vectorIP15ECConsoleUIItemNS_9allocatorIS2_EEE7__clearB7v160006Ev, symObjAddr: 0x4AAC, symBinAddr: 0x100012ED4, symSize: 0x28 }
  - { offsetInCU: 0xDB3B, offset: 0x2D4BC, size: 0x8, addend: 0x0, symName: __ZNSt3__116allocator_traitsINS_9allocatorIP15ECConsoleUIItemEEE10deallocateB7v160006ERS4_PS3_m, symObjAddr: 0x4AD4, symBinAddr: 0x100012EFC, symSize: 0x34 }
  - { offsetInCU: 0xDB7C, offset: 0x2D4FD, size: 0x8, addend: 0x0, symName: __ZNSt3__16vectorIP15ECConsoleUIItemNS_9allocatorIS2_EEE7__allocB7v160006Ev, symObjAddr: 0x4B08, symBinAddr: 0x100012F30, symSize: 0x28 }
  - { offsetInCU: 0xDBA0, offset: 0x2D521, size: 0x8, addend: 0x0, symName: __ZNKSt3__16vectorIP15ECConsoleUIItemNS_9allocatorIS2_EEE8capacityB7v160006Ev, symObjAddr: 0x4B30, symBinAddr: 0x100012F58, symSize: 0x40 }
  - { offsetInCU: 0xDBC4, offset: 0x2D545, size: 0x8, addend: 0x0, symName: __ZNKSt3__16vectorIP15ECConsoleUIItemNS_9allocatorIS2_EEE31__annotate_contiguous_containerB7v160006EPKvS7_S7_S7_, symObjAddr: 0x4B70, symBinAddr: 0x100012F98, symSize: 0x20 }
  - { offsetInCU: 0xDC18, offset: 0x2D599, size: 0x8, addend: 0x0, symName: __ZNKSt3__16vectorIP15ECConsoleUIItemNS_9allocatorIS2_EEE4dataB7v160006Ev, symObjAddr: 0x4B90, symBinAddr: 0x100012FB8, symSize: 0x28 }
  - { offsetInCU: 0xDC3C, offset: 0x2D5BD, size: 0x8, addend: 0x0, symName: __ZNSt3__16vectorIP15ECConsoleUIItemNS_9allocatorIS2_EEE22__base_destruct_at_endB7v160006EPS2_, symObjAddr: 0x4BCC, symBinAddr: 0x100012FF4, symSize: 0xA0 }
  - { offsetInCU: 0xDC7E, offset: 0x2D5FF, size: 0x8, addend: 0x0, symName: __ZNSt3__116allocator_traitsINS_9allocatorIP15ECConsoleUIItemEEE7destroyB7v160006IS3_vEEvRS4_PT_, symObjAddr: 0x4C6C, symBinAddr: 0x100013094, symSize: 0x2C }
  - { offsetInCU: 0xDCBA, offset: 0x2D63B, size: 0x8, addend: 0x0, symName: __ZNSt3__19allocatorIP15ECConsoleUIItemE7destroyB7v160006EPS2_, symObjAddr: 0x4C98, symBinAddr: 0x1000130C0, symSize: 0x14 }
  - { offsetInCU: 0xDCEC, offset: 0x2D66D, size: 0x8, addend: 0x0, symName: __ZNSt3__19allocatorIP15ECConsoleUIItemE10deallocateB7v160006EPS2_m, symObjAddr: 0x4CAC, symBinAddr: 0x1000130D4, symSize: 0x70 }
  - { offsetInCU: 0xDD2C, offset: 0x2D6AD, size: 0x8, addend: 0x0, symName: __ZNSt3__117__compressed_pairIPP15ECConsoleUIItemNS_9allocatorIS2_EEE6secondB7v160006Ev, symObjAddr: 0x4D1C, symBinAddr: 0x100013144, symSize: 0x24 }
  - { offsetInCU: 0xDD50, offset: 0x2D6D1, size: 0x8, addend: 0x0, symName: __ZNSt3__122__compressed_pair_elemINS_9allocatorIP15ECConsoleUIItemEELi1ELb1EE5__getB7v160006Ev, symObjAddr: 0x4D40, symBinAddr: 0x100013168, symSize: 0x14 }
  - { offsetInCU: 0xDD74, offset: 0x2D6F5, size: 0x8, addend: 0x0, symName: __ZNKSt3__16vectorIP15ECConsoleUIItemNS_9allocatorIS2_EEE9__end_capB7v160006Ev, symObjAddr: 0x4D54, symBinAddr: 0x10001317C, symSize: 0x28 }
  - { offsetInCU: 0xDD98, offset: 0x2D719, size: 0x8, addend: 0x0, symName: __ZNKSt3__117__compressed_pairIPP15ECConsoleUIItemNS_9allocatorIS2_EEE5firstB7v160006Ev, symObjAddr: 0x4D7C, symBinAddr: 0x1000131A4, symSize: 0x24 }
  - { offsetInCU: 0xDDBC, offset: 0x2D73D, size: 0x8, addend: 0x0, symName: __ZNKSt3__122__compressed_pair_elemIPP15ECConsoleUIItemLi0ELb0EE5__getB7v160006Ev, symObjAddr: 0x4DA0, symBinAddr: 0x1000131C8, symSize: 0x14 }
  - { offsetInCU: 0xDDE0, offset: 0x2D761, size: 0x8, addend: 0x0, symName: __ZNSt3__16vectorIP15ECConsoleUIItemNS_9allocatorIS2_EEE9__end_capB7v160006Ev, symObjAddr: 0x4DB4, symBinAddr: 0x1000131DC, symSize: 0x28 }
  - { offsetInCU: 0xDE04, offset: 0x2D785, size: 0x8, addend: 0x0, symName: __ZNSt3__16vectorIP15ECConsoleUIItemNS_9allocatorIS2_EEE22__construct_one_at_endB7v160006IJRKS2_EEEvDpOT_, symObjAddr: 0x4DDC, symBinAddr: 0x100013204, symSize: 0x98 }
  - { offsetInCU: 0xDE50, offset: 0x2D7D1, size: 0x8, addend: 0x0, symName: __ZNSt3__16vectorIP15ECConsoleUIItemNS_9allocatorIS2_EEE21__push_back_slow_pathIRKS2_EEvOT_, symObjAddr: 0x4E74, symBinAddr: 0x10001329C, symSize: 0xE0 }
  - { offsetInCU: 0xDEAE, offset: 0x2D82F, size: 0x8, addend: 0x0, symName: __ZNSt3__117__compressed_pairIPP15ECConsoleUIItemNS_9allocatorIS2_EEE5firstB7v160006Ev, symObjAddr: 0x4F54, symBinAddr: 0x10001337C, symSize: 0x24 }
  - { offsetInCU: 0xDED2, offset: 0x2D853, size: 0x8, addend: 0x0, symName: __ZNSt3__122__compressed_pair_elemIPP15ECConsoleUIItemLi0ELb0EE5__getB7v160006Ev, symObjAddr: 0x4F78, symBinAddr: 0x1000133A0, symSize: 0x14 }
  - { offsetInCU: 0xDF0F, offset: 0x2D890, size: 0x8, addend: 0x0, symName: __ZNSt3__16vectorIP15ECConsoleUIItemNS_9allocatorIS2_EEE21_ConstructTransactionC1B7v160006ERS5_m, symObjAddr: 0x4F8C, symBinAddr: 0x1000133B4, symSize: 0x3C }
  - { offsetInCU: 0xDF55, offset: 0x2D8D6, size: 0x8, addend: 0x0, symName: __ZNSt3__116allocator_traitsINS_9allocatorIP15ECConsoleUIItemEEE9constructB7v160006IS3_JRKS3_EvEEvRS4_PT_DpOT0_, symObjAddr: 0x4FC8, symBinAddr: 0x1000133F0, symSize: 0x34 }
  - { offsetInCU: 0xDFAB, offset: 0x2D92C, size: 0x8, addend: 0x0, symName: __ZNSt3__16vectorIP15ECConsoleUIItemNS_9allocatorIS2_EEE21_ConstructTransactionD1B7v160006Ev, symObjAddr: 0x4FFC, symBinAddr: 0x100013424, symSize: 0x2C }
  - { offsetInCU: 0xDFD3, offset: 0x2D954, size: 0x8, addend: 0x0, symName: __ZNSt3__16vectorIP15ECConsoleUIItemNS_9allocatorIS2_EEE21_ConstructTransactionC2B7v160006ERS5_m, symObjAddr: 0x5028, symBinAddr: 0x100013450, symSize: 0x44 }
  - { offsetInCU: 0xE019, offset: 0x2D99A, size: 0x8, addend: 0x0, symName: __ZNSt3__19allocatorIP15ECConsoleUIItemE9constructB7v160006IS2_JRKS2_EEEvPT_DpOT0_, symObjAddr: 0x506C, symBinAddr: 0x100013494, symSize: 0x28 }
  - { offsetInCU: 0xE06D, offset: 0x2D9EE, size: 0x8, addend: 0x0, symName: __ZNSt3__16vectorIP15ECConsoleUIItemNS_9allocatorIS2_EEE21_ConstructTransactionD2B7v160006Ev, symObjAddr: 0x5094, symBinAddr: 0x1000134BC, symSize: 0x20 }
  - { offsetInCU: 0xE094, offset: 0x2DA15, size: 0x8, addend: 0x0, symName: __ZNKSt3__16vectorIP15ECConsoleUIItemNS_9allocatorIS2_EEE11__recommendB7v160006Em, symObjAddr: 0x50B4, symBinAddr: 0x1000134DC, symSize: 0xB4 }
  - { offsetInCU: 0xE0E9, offset: 0x2DA6A, size: 0x8, addend: 0x0, symName: __ZNSt3__114__split_bufferIP15ECConsoleUIItemRNS_9allocatorIS2_EEEC1EmmS5_, symObjAddr: 0x5168, symBinAddr: 0x100013590, symSize: 0x44 }
  - { offsetInCU: 0xE13E, offset: 0x2DABF, size: 0x8, addend: 0x0, symName: __ZNSt3__114__split_bufferIP15ECConsoleUIItemRNS_9allocatorIS2_EEED1Ev, symObjAddr: 0x52C4, symBinAddr: 0x1000136EC, symSize: 0x2C }
  - { offsetInCU: 0xE168, offset: 0x2DAE9, size: 0x8, addend: 0x0, symName: __ZNKSt3__16vectorIP15ECConsoleUIItemNS_9allocatorIS2_EEE8max_sizeEv, symObjAddr: 0x52F0, symBinAddr: 0x100013718, symSize: 0x74 }
  - { offsetInCU: 0xE190, offset: 0x2DB11, size: 0x8, addend: 0x0, symName: __ZNKSt3__16vectorIP15ECConsoleUIItemNS_9allocatorIS2_EEE20__throw_length_errorB7v160006Ev, symObjAddr: 0x5364, symBinAddr: 0x10001378C, symSize: 0x1C }
  - { offsetInCU: 0xE1BE, offset: 0x2DB3F, size: 0x8, addend: 0x0, symName: __ZNSt3__116allocator_traitsINS_9allocatorIP15ECConsoleUIItemEEE8max_sizeB7v160006IS4_vEEmRKS4_, symObjAddr: 0x5380, symBinAddr: 0x1000137A8, symSize: 0x24 }
  - { offsetInCU: 0xE1EB, offset: 0x2DB6C, size: 0x8, addend: 0x0, symName: __ZNKSt3__16vectorIP15ECConsoleUIItemNS_9allocatorIS2_EEE7__allocB7v160006Ev, symObjAddr: 0x53A4, symBinAddr: 0x1000137CC, symSize: 0x28 }
  - { offsetInCU: 0xE20F, offset: 0x2DB90, size: 0x8, addend: 0x0, symName: __ZNKSt3__19allocatorIP15ECConsoleUIItemE8max_sizeB7v160006Ev, symObjAddr: 0x53CC, symBinAddr: 0x1000137F4, symSize: 0x14 }
  - { offsetInCU: 0xE233, offset: 0x2DBB4, size: 0x8, addend: 0x0, symName: __ZNKSt3__117__compressed_pairIPP15ECConsoleUIItemNS_9allocatorIS2_EEE6secondB7v160006Ev, symObjAddr: 0x53E0, symBinAddr: 0x100013808, symSize: 0x24 }
  - { offsetInCU: 0xE257, offset: 0x2DBD8, size: 0x8, addend: 0x0, symName: __ZNKSt3__122__compressed_pair_elemINS_9allocatorIP15ECConsoleUIItemEELi1ELb1EE5__getB7v160006Ev, symObjAddr: 0x5404, symBinAddr: 0x10001382C, symSize: 0x14 }
  - { offsetInCU: 0xE27B, offset: 0x2DBFC, size: 0x8, addend: 0x0, symName: __ZNSt3__114__split_bufferIP15ECConsoleUIItemRNS_9allocatorIS2_EEEC2EmmS5_, symObjAddr: 0x5418, symBinAddr: 0x100013840, symSize: 0xD4 }
  - { offsetInCU: 0xE2ED, offset: 0x2DC6E, size: 0x8, addend: 0x0, symName: __ZNSt3__117__compressed_pairIPP15ECConsoleUIItemRNS_9allocatorIS2_EEEC1B7v160006IDnS6_EEOT_OT0_, symObjAddr: 0x54EC, symBinAddr: 0x100013914, symSize: 0x3C }
  - { offsetInCU: 0xE343, offset: 0x2DCC4, size: 0x8, addend: 0x0, symName: __ZNSt3__114__split_bufferIP15ECConsoleUIItemRNS_9allocatorIS2_EEE7__allocB7v160006Ev, symObjAddr: 0x5568, symBinAddr: 0x100013990, symSize: 0x28 }
  - { offsetInCU: 0xE367, offset: 0x2DCE8, size: 0x8, addend: 0x0, symName: __ZNSt3__114__split_bufferIP15ECConsoleUIItemRNS_9allocatorIS2_EEE9__end_capB7v160006Ev, symObjAddr: 0x5590, symBinAddr: 0x1000139B8, symSize: 0x28 }
  - { offsetInCU: 0xE38B, offset: 0x2DD0C, size: 0x8, addend: 0x0, symName: __ZNSt3__117__compressed_pairIPP15ECConsoleUIItemRNS_9allocatorIS2_EEEC2B7v160006IDnS6_EEOT_OT0_, symObjAddr: 0x55B8, symBinAddr: 0x1000139E0, symSize: 0x48 }
  - { offsetInCU: 0xE3E1, offset: 0x2DD62, size: 0x8, addend: 0x0, symName: __ZNSt3__122__compressed_pair_elemIRNS_9allocatorIP15ECConsoleUIItemEELi1ELb0EEC2B7v160006IS5_vEEOT_, symObjAddr: 0x5600, symBinAddr: 0x100013A28, symSize: 0x20 }
  - { offsetInCU: 0xE421, offset: 0x2DDA2, size: 0x8, addend: 0x0, symName: __ZNSt3__19allocatorIP15ECConsoleUIItemE8allocateB7v160006Em, symObjAddr: 0x5620, symBinAddr: 0x100013A48, symSize: 0x84 }
  - { offsetInCU: 0xE453, offset: 0x2DDD4, size: 0x8, addend: 0x0, symName: __ZNSt3__117__compressed_pairIPP15ECConsoleUIItemRNS_9allocatorIS2_EEE6secondB7v160006Ev, symObjAddr: 0x56A4, symBinAddr: 0x100013ACC, symSize: 0x28 }
  - { offsetInCU: 0xE477, offset: 0x2DDF8, size: 0x8, addend: 0x0, symName: __ZNSt3__122__compressed_pair_elemIRNS_9allocatorIP15ECConsoleUIItemEELi1ELb0EE5__getB7v160006Ev, symObjAddr: 0x56CC, symBinAddr: 0x100013AF4, symSize: 0x18 }
  - { offsetInCU: 0xE49B, offset: 0x2DE1C, size: 0x8, addend: 0x0, symName: __ZNSt3__117__compressed_pairIPP15ECConsoleUIItemRNS_9allocatorIS2_EEE5firstB7v160006Ev, symObjAddr: 0x56E4, symBinAddr: 0x100013B0C, symSize: 0x24 }
  - { offsetInCU: 0xE4BF, offset: 0x2DE40, size: 0x8, addend: 0x0, symName: __ZNSt3__116reverse_iteratorIPP15ECConsoleUIItemEC1B7v160006ES3_, symObjAddr: 0x57F0, symBinAddr: 0x100013C18, symSize: 0x34 }
  - { offsetInCU: 0xE4F5, offset: 0x2DE76, size: 0x8, addend: 0x0, symName: __ZNKSt3__116reverse_iteratorIPP15ECConsoleUIItemE4baseB7v160006Ev, symObjAddr: 0x5824, symBinAddr: 0x100013C4C, symSize: 0x18 }
  - { offsetInCU: 0xE519, offset: 0x2DE9A, size: 0x8, addend: 0x0, symName: __ZNKSt3__16vectorIP15ECConsoleUIItemNS_9allocatorIS2_EEE14__annotate_newB7v160006Em, symObjAddr: 0x5878, symBinAddr: 0x100013CA0, symSize: 0xAC }
  - { offsetInCU: 0xE54C, offset: 0x2DECD, size: 0x8, addend: 0x0, symName: __ZNKSt3__116reverse_iteratorIPP15ECConsoleUIItemEdeB7v160006Ev, symObjAddr: 0x59CC, symBinAddr: 0x100013DF4, symSize: 0x28 }
  - { offsetInCU: 0xE57E, offset: 0x2DEFF, size: 0x8, addend: 0x0, symName: __ZNSt3__116reverse_iteratorIPP15ECConsoleUIItemEppB7v160006Ev, symObjAddr: 0x59F4, symBinAddr: 0x100013E1C, symSize: 0x20 }
  - { offsetInCU: 0xE5A7, offset: 0x2DF28, size: 0x8, addend: 0x0, symName: __ZNSt3__119__to_address_helperINS_16reverse_iteratorIPP15ECConsoleUIItemEEvE6__callB7v160006ERKS5_, symObjAddr: 0x5A8C, symBinAddr: 0x100013EB4, symSize: 0x4C }
  - { offsetInCU: 0xE5C9, offset: 0x2DF4A, size: 0x8, addend: 0x0, symName: __ZNKSt3__116reverse_iteratorIPP15ECConsoleUIItemEptB7v160006Ev, symObjAddr: 0x5AD8, symBinAddr: 0x100013F00, symSize: 0x24 }
  - { offsetInCU: 0xE606, offset: 0x2DF87, size: 0x8, addend: 0x0, symName: __ZNKSt3__111__move_loopINS_17_ClassicAlgPolicyEEclB7v160006INS_16reverse_iteratorIPP15ECConsoleUIItemEES8_S8_EENS_4pairIT_T1_EESA_T0_SB_, symObjAddr: 0x5D8C, symBinAddr: 0x1000141B4, symSize: 0xA0 }
  - { offsetInCU: 0xE674, offset: 0x2DFF5, size: 0x8, addend: 0x0, symName: __ZNSt3__18_IterOpsINS_17_ClassicAlgPolicyEE11__iter_moveB7v160006IRNS_16reverse_iteratorIPP15ECConsoleUIItemEEEENS_9enable_ifIXsr12is_referenceIDTdeclsr3stdE7declvalIRT_EEEEE5valueEDTclsr3stdE4movedeclsr3stdE7declvalISC_EEEEE4typeEOSB_, symObjAddr: 0x5F8C, symBinAddr: 0x1000143B4, symSize: 0x28 }
  - { offsetInCU: 0xE69F, offset: 0x2E020, size: 0x8, addend: 0x0, symName: __ZNSt3__18_IterOpsINS_17_ClassicAlgPolicyEE25__validate_iter_referenceB7v160006IRNS_16reverse_iteratorIPP15ECConsoleUIItemEEEEvv, symObjAddr: 0x5FB4, symBinAddr: 0x1000143DC, symSize: 0x4 }
  - { offsetInCU: 0xE6BC, offset: 0x2E03D, size: 0x8, addend: 0x0, symName: __ZNSt3__118__unwrap_iter_implINS_16reverse_iteratorIPP15ECConsoleUIItemEELb0EE8__unwrapB7v160006ES5_, symObjAddr: 0x5FB8, symBinAddr: 0x1000143E0, symSize: 0x24 }
  - { offsetInCU: 0xE6DE, offset: 0x2E05F, size: 0x8, addend: 0x0, symName: __ZNSt3__14pairINS_16reverse_iteratorIPP15ECConsoleUIItemEES5_EC1B7v160006ERKS5_S8_, symObjAddr: 0x5FDC, symBinAddr: 0x100014404, symSize: 0x3C }
  - { offsetInCU: 0xE722, offset: 0x2E0A3, size: 0x8, addend: 0x0, symName: __ZNSt3__14pairINS_16reverse_iteratorIPP15ECConsoleUIItemEES5_EC2B7v160006ERKS5_S8_, symObjAddr: 0x6018, symBinAddr: 0x100014440, symSize: 0x34 }
  - { offsetInCU: 0xE766, offset: 0x2E0E7, size: 0x8, addend: 0x0, symName: __ZNSt3__118__unwrap_iter_implINS_16reverse_iteratorIPP15ECConsoleUIItemEELb0EE8__rewrapB7v160006ES5_S5_, symObjAddr: 0x604C, symBinAddr: 0x100014474, symSize: 0x2C }
  - { offsetInCU: 0xE792, offset: 0x2E113, size: 0x8, addend: 0x0, symName: __ZNSt3__116reverse_iteratorIPP15ECConsoleUIItemEC2B7v160006ES3_, symObjAddr: 0x6078, symBinAddr: 0x1000144A0, symSize: 0x28 }
  - { offsetInCU: 0xE7C8, offset: 0x2E149, size: 0x8, addend: 0x0, symName: __ZNSt3__114__split_bufferIP15ECConsoleUIItemRNS_9allocatorIS2_EEED2Ev, symObjAddr: 0x60A0, symBinAddr: 0x1000144C8, symSize: 0x80 }
  - { offsetInCU: 0xE7F3, offset: 0x2E174, size: 0x8, addend: 0x0, symName: __ZNSt3__114__split_bufferIP15ECConsoleUIItemRNS_9allocatorIS2_EEE5clearB7v160006Ev, symObjAddr: 0x6120, symBinAddr: 0x100014548, symSize: 0x28 }
  - { offsetInCU: 0xE817, offset: 0x2E198, size: 0x8, addend: 0x0, symName: __ZNKSt3__114__split_bufferIP15ECConsoleUIItemRNS_9allocatorIS2_EEE8capacityB7v160006Ev, symObjAddr: 0x6148, symBinAddr: 0x100014570, symSize: 0x40 }
  - { offsetInCU: 0xE83B, offset: 0x2E1BC, size: 0x8, addend: 0x0, symName: __ZNSt3__114__split_bufferIP15ECConsoleUIItemRNS_9allocatorIS2_EEE17__destruct_at_endB7v160006EPS2_, symObjAddr: 0x6188, symBinAddr: 0x1000145B0, symSize: 0x2C }
  - { offsetInCU: 0xE86C, offset: 0x2E1ED, size: 0x8, addend: 0x0, symName: __ZNSt3__114__split_bufferIP15ECConsoleUIItemRNS_9allocatorIS2_EEE17__destruct_at_endB7v160006EPS2_NS_17integral_constantIbLb0EEE, symObjAddr: 0x61B4, symBinAddr: 0x1000145DC, symSize: 0x94 }
  - { offsetInCU: 0xE8AC, offset: 0x2E22D, size: 0x8, addend: 0x0, symName: __ZNKSt3__114__split_bufferIP15ECConsoleUIItemRNS_9allocatorIS2_EEE9__end_capB7v160006Ev, symObjAddr: 0x6248, symBinAddr: 0x100014670, symSize: 0x28 }
  - { offsetInCU: 0xE8D0, offset: 0x2E251, size: 0x8, addend: 0x0, symName: __ZNKSt3__117__compressed_pairIPP15ECConsoleUIItemRNS_9allocatorIS2_EEE5firstB7v160006Ev, symObjAddr: 0x6270, symBinAddr: 0x100014698, symSize: 0x24 }
  - { offsetInCU: 0xE8F4, offset: 0x2E275, size: 0x8, addend: 0x0, symName: __ZNSt3__112basic_stringIcNS_11char_traitsIcEENS_9allocatorIcEEE13__get_pointerB7v160006Ev, symObjAddr: 0x698C, symBinAddr: 0x1000146BC, symSize: 0x54 }
  - { offsetInCU: 0x58AB, offset: 0x33C4C, size: 0x8, addend: 0x0, symName: __ZN18ECConsoleUIListBoxC2Eiiii, symObjAddr: 0x0, symBinAddr: 0x100014710, symSize: 0xA4 }
  - { offsetInCU: 0x590D, offset: 0x33CAE, size: 0x8, addend: 0x0, symName: __ZN18ECConsoleUIListBoxC1Eiiii, symObjAddr: 0x144, symBinAddr: 0x1000147B4, symSize: 0x4C }
  - { offsetInCU: 0x596F, offset: 0x33D10, size: 0x8, addend: 0x0, symName: __ZN18ECConsoleUIListBox9AddChoiceERKNSt3__112basic_stringIcNS0_11char_traitsIcEENS0_9allocatorIcEEEE, symObjAddr: 0x190, symBinAddr: 0x100014800, symSize: 0x30 }
  - { offsetInCU: 0x59A3, offset: 0x33D44, size: 0x8, addend: 0x0, symName: __ZN18ECConsoleUIListBox6ChooseEi, symObjAddr: 0x22C, symBinAddr: 0x100014830, symSize: 0x74 }
  - { offsetInCU: 0x59D7, offset: 0x33D78, size: 0x8, addend: 0x0, symName: __ZNK18ECConsoleUIListBox12GetTextAtRowEi, symObjAddr: 0x2C8, symBinAddr: 0x1000148A4, symSize: 0xA0 }
  - { offsetInCU: 0x5A10, offset: 0x33DB1, size: 0x8, addend: 0x0, symName: __ZNK18ECConsoleUIListBox20GetHighlightPositionERiS0_, symObjAddr: 0x3C8, symBinAddr: 0x100014944, symSize: 0xA0 }
  - { offsetInCU: 0x5A52, offset: 0x33DF3, size: 0x8, addend: 0x0, symName: __ZN18ECConsoleUIListBoxD1Ev, symObjAddr: 0x468, symBinAddr: 0x1000149E4, symSize: 0x2C }
  - { offsetInCU: 0x5A7C, offset: 0x33E1D, size: 0x8, addend: 0x0, symName: __ZN18ECConsoleUIListBoxD0Ev, symObjAddr: 0x494, symBinAddr: 0x100014A10, symSize: 0x58 }
  - { offsetInCU: 0x5AA6, offset: 0x33E47, size: 0x8, addend: 0x0, symName: __ZN18ECConsoleUIListBoxD2Ev, symObjAddr: 0x564, symBinAddr: 0x100014A68, symSize: 0x70 }
  - { offsetInCU: 0x8466, offset: 0x3C304, size: 0x8, addend: 0x0, symName: __ZN20ECConsoleUITextFieldC2EP13ECTextViewImpiii, symObjAddr: 0x0, symBinAddr: 0x100014AD8, symSize: 0x90 }
  - { offsetInCU: 0x84C8, offset: 0x3C366, size: 0x8, addend: 0x0, symName: __ZN20ECConsoleUITextFieldC1EP13ECTextViewImpiii, symObjAddr: 0xE4, symBinAddr: 0x100014B68, symSize: 0x4C }
  - { offsetInCU: 0x852A, offset: 0x3C3C8, size: 0x8, addend: 0x0, symName: __ZNK20ECConsoleUITextField12GetTextAtRowEi, symObjAddr: 0x130, symBinAddr: 0x100014BB4, symSize: 0xA0 }
  - { offsetInCU: 0x8571, offset: 0x3C40F, size: 0x8, addend: 0x0, symName: __ZNK20ECConsoleUITextField20GetHighlightPositionERiS0_, symObjAddr: 0x2AC, symBinAddr: 0x100014C54, symSize: 0xE0 }
  - { offsetInCU: 0x85CF, offset: 0x3C46D, size: 0x8, addend: 0x0, symName: __ZNK13ECTextViewImp9IsEditingEv, symObjAddr: 0x38C, symBinAddr: 0x100014D34, symSize: 0x1C }
  - { offsetInCU: 0x85F3, offset: 0x3C491, size: 0x8, addend: 0x0, symName: __ZNK13ECTextViewImp10GetCursorYEv, symObjAddr: 0x3A8, symBinAddr: 0x100014D50, symSize: 0x28 }
  - { offsetInCU: 0x8617, offset: 0x3C4B5, size: 0x8, addend: 0x0, symName: __ZN20ECConsoleUITextFieldD1Ev, symObjAddr: 0x3F4, symBinAddr: 0x100014D78, symSize: 0x2C }
  - { offsetInCU: 0x8641, offset: 0x3C4DF, size: 0x8, addend: 0x0, symName: __ZN20ECConsoleUITextFieldD0Ev, symObjAddr: 0x420, symBinAddr: 0x100014DA4, symSize: 0x58 }
  - { offsetInCU: 0x866B, offset: 0x3C509, size: 0x8, addend: 0x0, symName: __ZN20ECConsoleUITextFieldD2Ev, symObjAddr: 0x704, symBinAddr: 0x100014DFC, symSize: 0x2C }
  - { offsetInCU: 0x71DA, offset: 0x4371C, size: 0x8, addend: 0x0, symName: __ZNSt3__1lsB7v160006IcNS_11char_traitsIcEENS_9allocatorIcEEEERNS_13basic_ostreamIT_T0_EES9_RKNS_12basic_stringIS6_S7_T1_EE, symObjAddr: 0xEF4, symBinAddr: 0x100015CDC, symSize: 0x4C }
  - { offsetInCU: 0x7232, offset: 0x43774, size: 0x8, addend: 0x0, symName: __ZNSt3__14endlB7v160006IcNS_11char_traitsIcEEEERNS_13basic_ostreamIT_T0_EES7_, symObjAddr: 0xFB4, symBinAddr: 0x100015D54, symSize: 0x58 }
  - { offsetInCU: 0x9B74, offset: 0x460B6, size: 0x8, addend: 0x0, symName: _main, symObjAddr: 0x0, symBinAddr: 0x100014E28, symSize: 0x248 }
  - { offsetInCU: 0xA46A, offset: 0x469AC, size: 0x8, addend: 0x0, symName: __ZN13ECTextViewImp12AddStatusRowERKNSt3__112basic_stringIcNS0_11char_traitsIcEENS0_9allocatorIcEEEES8_b, symObjAddr: 0x248, symBinAddr: 0x100015070, symSize: 0x4C }
  - { offsetInCU: 0xA4BE, offset: 0x46A00, size: 0x8, addend: 0x0, symName: __ZL5Test1R15ECConsoleUIView, symObjAddr: 0x2D4, symBinAddr: 0x1000150BC, symSize: 0xC20 }
  - { offsetInCU: 0xA5AF, offset: 0x46AF1, size: 0x8, addend: 0x0, symName: __ZNSt3__113basic_ostreamIcNS_11char_traitsIcEEElsB7v160006EPFRS3_S4_E, symObjAddr: 0xF88, symBinAddr: 0x100015D28, symSize: 0x2C }
  - { offsetInCU: 0xA6BC, offset: 0x46BFE, size: 0x8, addend: 0x0, symName: __ZN20ECConsoleUITextLabel12SetHighlightEb, symObjAddr: 0x100C, symBinAddr: 0x100015DAC, symSize: 0x2C }
  - { offsetInCU: 0xA893, offset: 0x46DD5, size: 0x8, addend: 0x0, symName: __ZN15ECConsoleUIView7GetViewEv, symObjAddr: 0x1098, symBinAddr: 0x100015DD8, symSize: 0x18 }
...
